(dp0
S'ELLIOTT STEVEN'
p1
(dp2
S'to_messages'
p3
S'NaN'
p4
sS'deferral_payments'
p5
g4
sS'expenses'
p6
I78552
sS'poi'
p7
I00
sS'deferred_income'
p8
I-400729
sS'email_address'
p9
S'steven.elliott@enron.com'
p10
sS'long_term_incentive'
p11
g4
sS'fraction_from_poi'
p12
I0
sS'restricted_stock_deferred'
p13
g4
sS'shared_receipt_with_poi'
p14
g4
sS'loan_advances'
p15
g4
sS'from_messages'
p16
g4
sS'other'
p17
I12961
sS'director_fees'
p18
g4
sS'bonus'
p19
I350000
sS'total_stock_value'
p20
I6678735
sS'from_poi_to_this_person'
p21
g4
sS'from_this_person_to_poi'
p22
g4
sS'restricted_stock'
p23
I1788391
sS'salary'
p24
I170941
sS'total_payments'
p25
I211725
sS'fraction_to_poi'
p26
I0
sS'exercised_stock_options'
p27
I4890344
ssS'CORDES WILLIAM R'
p28
(dp29
g3
I764
sg5
g4
sg6
g4
sg7
I00
sg8
g4
sg9
S'bill.cordes@enron.com'
p30
sg11
g4
sg12
F0.013089005235602094
sg13
g4
sg14
I58
sg15
g4
sg16
I12
sg17
g4
sg18
g4
sg19
g4
sg20
I1038185
sg21
I10
sg22
I0
sg23
I386335
sg24
g4
sg25
g4
sg26
F0.0
sg27
I651850
ssS'HANNON KEVIN P'
p31
(dp32
g3
I1045
sg5
g4
sg6
I34039
sg7
I01
sg8
I-3117011
sg9
S'kevin.hannon@enron.com'
p33
sg11
I1617011
sg12
F0.03062200956937799
sg13
g4
sg14
I1035
sg15
g4
sg16
I32
sg17
I11350
sg18
g4
sg19
I1500000
sg20
I6391065
sg21
I32
sg22
I21
sg23
I853064
sg24
I243293
sg25
I288682
sg26
F0.65625
sg27
I5538001
ssS'MORDAUNT KRISTINA M'
p34
(dp35
g3
g4
sg5
g4
sg6
I35018
sg7
I00
sg8
g4
sg9
S'kristina.mordaunt@enron.com'
p36
sg11
g4
sg12
I0
sg13
g4
sg14
g4
sg15
g4
sg16
g4
sg17
I1411
sg18
g4
sg19
I325000
sg20
I208510
sg21
g4
sg22
g4
sg23
I208510
sg24
I267093
sg25
I628522
sg26
I0
sg27
g4
ssS'MEYER ROCKFORD G'
p37
(dp38
g3
I232
sg5
I1848227
sg6
g4
sg7
I00
sg8
g4
sg9
S'rockford.meyer@enron.com'
p39
sg11
g4
sg12
F0.0
sg13
g4
sg14
I22
sg15
g4
sg16
I28
sg17
g4
sg18
g4
sg19
g4
sg20
I955873
sg21
I0
sg22
I0
sg23
I462384
sg24
g4
sg25
I1848227
sg26
F0.0
sg27
I493489
ssS'HORTON STANLEY C'
p40
(dp41
g3
I2350
sg5
I3131860
sg6
g4
sg7
I00
sg8
g4
sg9
S'stanley.horton@enron.com'
p42
sg11
g4
sg12
F0.01872340425531915
sg13
g4
sg14
I1074
sg15
g4
sg16
I1073
sg17
g4
sg18
g4
sg19
g4
sg20
I7256648
sg21
I44
sg22
I15
sg23
I2046079
sg24
g4
sg25
I3131860
sg26
F0.013979496738117428
sg27
I5210569
ssS'GIBBS DANA R'
p43
(dp44
g3
I169
sg5
I504610
sg6
g4
sg7
I00
sg8
g4
sg9
S'dana.gibbs@enron.com'
p45
sg11
I461912
sg12
F0.0
sg13
g4
sg14
I23
sg15
g4
sg16
I12
sg17
g4
sg18
g4
sg19
g4
sg20
I2218275
sg21
I0
sg22
I0
sg23
g4
sg24
g4
sg25
I966522
sg26
F0.0
sg27
I2218275
ssS'LOWRY CHARLES P'
p46
(dp47
g3
g4
sg5
g4
sg6
g4
sg7
I00
sg8
g4
sg9
g4
sg11
g4
sg12
I0
sg13
I-153686
sg14
g4
sg15
g4
sg16
g4
sg17
g4
sg18
g4
sg19
g4
sg20
I372205
sg21
g4
sg22
g4
sg23
I153686
sg24
g4
sg25
g4
sg26
I0
sg27
I372205
ssS'COLWELL WESLEY'
p48
(dp49
g3
I1758
sg5
I27610
sg6
I16514
sg7
I01
sg8
I-144062
sg9
S'wes.colwell@enron.com'
p50
sg11
g4
sg12
F0.13651877133105803
sg13
g4
sg14
I1132
sg15
g4
sg16
I40
sg17
I101740
sg18
g4
sg19
I1200000
sg20
I698242
sg21
I240
sg22
I11
sg23
I698242
sg24
I288542
sg25
I1490344
sg26
F0.275
sg27
g4
ssS'WESTFAHL RICHARD K'
p51
(dp52
g3
g4
sg5
g4
sg6
I51870
sg7
I00
sg8
I-10800
sg9
S'dick.westfahl@enron.com'
p53
sg11
I256191
sg12
I0
sg13
g4
sg14
g4
sg15
g4
sg16
g4
sg17
I401130
sg18
g4
sg19
g4
sg20
I384930
sg21
g4
sg22
g4
sg23
I384930
sg24
I63744
sg25
I762135
sg26
I0
sg27
g4
ssS'WALTERS GARETH W'
p54
(dp55
g3
g4
sg5
I53625
sg6
I33785
sg7
I00
sg8
g4
sg9
g4
sg11
g4
sg12
I0
sg13
g4
sg14
g4
sg15
g4
sg16
g4
sg17
g4
sg18
g4
sg19
g4
sg20
I1030329
sg21
g4
sg22
g4
sg23
g4
sg24
g4
sg25
I87410
sg26
I0
sg27
I1030329
ssS'WALLS JR ROBERT H'
p56
(dp57
g3
I671
sg5
g4
sg6
I50936
sg7
I00
sg8
g4
sg9
S'rob.walls@enron.com'
p58
sg11
I540751
sg12
F0.02533532041728763
sg13
g4
sg14
I215
sg15
g4
sg16
I146
sg17
I2
sg18
g4
sg19
I850000
sg20
I5898997
sg21
I17
sg22
I0
sg23
I1552453
sg24
I357091
sg25
I1798780
sg26
F0.0
sg27
I4346544
ssS'CHAN RONNIE'
p59
(dp60
g3
g4
sg5
g4
sg6
g4
sg7
I00
sg8
I-98784
sg9
g4
sg11
g4
sg12
I0
sg13
I-32460
sg14
g4
sg15
g4
sg16
g4
sg17
g4
sg18
I98784
sg19
g4
sg20
g4
sg21
g4
sg22
g4
sg23
I32460
sg24
g4
sg25
g4
sg26
I0
sg27
g4
ssS'BELFER ROBERT'
p61
(dp62
g3
g4
sg5
I-102500
sg6
g4
sg7
I00
sg8
g4
sg9
g4
sg11
g4
sg12
I0
sg13
I44093
sg14
g4
sg15
g4
sg16
g4
sg17
g4
sg18
I3285
sg19
g4
sg20
I-44093
sg21
g4
sg22
g4
sg23
g4
sg24
g4
sg25
I102500
sg26
I0
sg27
I3285
ssS'SHANKMAN JEFFREY A'
p63
(dp64
g3
I3221
sg5
g4
sg6
I178979
sg7
I00
sg8
g4
sg9
S'jeffrey.shankman@enron.com'
p65
sg11
I554422
sg12
F0.029183483390251473
sg13
g4
sg14
I1730
sg15
g4
sg16
I2681
sg17
I1191
sg18
g4
sg19
I2000000
sg20
I2072035
sg21
I94
sg22
I83
sg23
I630137
sg24
I304110
sg25
I3038702
sg26
F0.030958597538232
sg27
I1441898
ssS'WODRASKA JOHN'
p66
(dp67
g3
g4
sg5
g4
sg6
g4
sg7
I00
sg8
g4
sg9
S'john.wodraska@enron.com'
p68
sg11
g4
sg12
I0
sg13
g4
sg14
g4
sg15
g4
sg16
g4
sg17
I189583
sg18
g4
sg19
g4
sg20
g4
sg21
g4
sg22
g4
sg23
g4
sg24
g4
sg25
I189583
sg26
I0
sg27
g4
ssS'BERGSIEKER RICHARD P'
p69
(dp70
g3
I383
sg5
g4
sg6
I59175
sg7
I00
sg8
I-485813
sg9
S'rick.bergsieker@enron.com'
p71
sg11
I180250
sg12
F0.010443864229765013
sg13
g4
sg14
I233
sg15
g4
sg16
I59
sg17
I427316
sg18
g4
sg19
I250000
sg20
I659249
sg21
I4
sg22
I0
sg23
I659249
sg24
I187922
sg25
I618850
sg26
F0.0
sg27
g4
ssS'URQUHART JOHN A'
p72
(dp73
g3
g4
sg5
g4
sg6
I228656
sg7
I00
sg8
I-36666
sg9
g4
sg11
g4
sg12
I0
sg13
g4
sg14
g4
sg15
g4
sg16
g4
sg17
g4
sg18
I36666
sg19
g4
sg20
g4
sg21
g4
sg22
g4
sg23
g4
sg24
g4
sg25
I228656
sg26
I0
sg27
g4
ssS'RIEKER PAULA H'
p74
(dp75
g3
I1328
sg5
I214678
sg6
I33271
sg7
I01
sg8
I-100000
sg9
S'paula.rieker@enron.com'
p76
sg11
g4
sg12
F0.02635542168674699
sg13
g4
sg14
I1258
sg15
g4
sg16
I82
sg17
I1950
sg18
g4
sg19
I700000
sg20
I1918887
sg21
I35
sg22
I48
sg23
I283649
sg24
I249201
sg25
I1099100
sg26
F0.5853658536585366
sg27
I1635238
ssS'WHALEY DAVID A'
p77
(dp78
g3
g4
sg5
g4
sg6
g4
sg7
I00
sg8
g4
sg9
g4
sg11
g4
sg12
I0
sg13
g4
sg14
g4
sg15
g4
sg16
g4
sg17
g4
sg18
g4
sg19
g4
sg20
I98718
sg21
g4
sg22
g4
sg23
g4
sg24
g4
sg25
g4
sg26
I0
sg27
I98718
ssS'ECHOLS JOHN B'
p79
(dp80
g3
g4
sg5
g4
sg6
I21530
sg7
I00
sg8
g4
sg9
S'john.echols@enron.com'
p81
sg11
I2234774
sg12
I0
sg13
g4
sg14
g4
sg15
g4
sg16
g4
sg17
I53775
sg18
g4
sg19
I200000
sg20
I1008941
sg21
g4
sg22
g4
sg23
I407503
sg24
I182245
sg25
I2692324
sg26
I0
sg27
I601438
ssS'MENDELSOHN JOHN'
p82
(dp83
g3
g4
sg5
g4
sg6
I148
sg7
I00
sg8
I-103750
sg9
g4
sg11
g4
sg12
I0
sg13
g4
sg14
g4
sg15
g4
sg16
g4
sg17
g4
sg18
I103750
sg19
g4
sg20
g4
sg21
g4
sg22
g4
sg23
g4
sg24
g4
sg25
I148
sg26
I0
sg27
g4
ssS'HICKERSON GARY J'
p84
(dp85
g3
I1320
sg5
g4
sg6
I98849
sg7
I00
sg8
g4
sg9
S'gary.hickerson@enron.com'
p86
sg11
I69223
sg12
F0.030303030303030304
sg13
g4
sg14
I900
sg15
g4
sg16
I27
sg17
I1936
sg18
g4
sg19
I1700000
sg20
I441096
sg21
I40
sg22
I1
sg23
I441096
sg24
I211788
sg25
I2081796
sg26
F0.037037037037037035
sg27
g4
ssS'CLINE KENNETH W'
p87
(dp88
g3
g4
sg5
g4
sg6
g4
sg7
I00
sg8
g4
sg9
g4
sg11
g4
sg12
I0
sg13
I-472568
sg14
g4
sg15
g4
sg16
g4
sg17
g4
sg18
g4
sg19
g4
sg20
I189518
sg21
g4
sg22
g4
sg23
I662086
sg24
g4
sg25
g4
sg26
I0
sg27
g4
ssS'LEWIS RICHARD'
p89
(dp90
g3
I952
sg5
g4
sg6
g4
sg7
I00
sg8
g4
sg9
S'richard.lewis@enron.com'
p91
sg11
g4
sg12
F0.01050420168067227
sg13
g4
sg14
I739
sg15
g4
sg16
I26
sg17
g4
sg18
g4
sg19
g4
sg20
I850477
sg21
I10
sg22
I0
sg23
g4
sg24
g4
sg25
g4
sg26
F0.0
sg27
I850477
ssS'HAYES ROBERT E'
p92
(dp93
g3
I504
sg5
I7961
sg6
g4
sg7
I00
sg8
g4
sg9
S'robert.hayes@enron.com'
p94
sg11
g4
sg12
F0.031746031746031744
sg13
g4
sg14
I50
sg15
g4
sg16
I12
sg17
g4
sg18
g4
sg19
g4
sg20
I151418
sg21
I16
sg22
I0
sg23
I151418
sg24
g4
sg25
I7961
sg26
F0.0
sg27
g4
ssS'MCCARTY DANNY J'
p95
(dp96
g3
I1433
sg5
g4
sg6
g4
sg7
I00
sg8
g4
sg9
S'danny.mccarty@enron.com'
p97
sg11
g4
sg12
F0.017445917655268667
sg13
g4
sg14
I508
sg15
g4
sg16
I215
sg17
g4
sg18
g4
sg19
g4
sg20
I758931
sg21
I25
sg22
I2
sg23
I94556
sg24
g4
sg25
g4
sg26
F0.009302325581395349
sg27
I664375
ssS'KOPPER MICHAEL J'
p98
(dp99
g3
g4
sg5
g4
sg6
I118134
sg7
I01
sg8
g4
sg9
S'michael.kopper@enron.com'
p100
sg11
I602671
sg12
I0
sg13
g4
sg14
g4
sg15
g4
sg16
g4
sg17
I907502
sg18
g4
sg19
I800000
sg20
I985032
sg21
g4
sg22
g4
sg23
I985032
sg24
I224305
sg25
I2652612
sg26
I0
sg27
g4
ssS'BERBERIAN DAVID'
p101
(dp102
g3
g4
sg5
g4
sg6
I11892
sg7
I00
sg8
g4
sg9
S'david.berberian@enron.com'
p103
sg11
g4
sg12
I0
sg13
g4
sg14
g4
sg15
g4
sg16
g4
sg17
g4
sg18
g4
sg19
g4
sg20
I2493616
sg21
g4
sg22
g4
sg23
I869220
sg24
I216582
sg25
I228474
sg26
I0
sg27
I1624396
ssS'DETMERING TIMOTHY J'
p104
(dp105
g3
g4
sg5
I875307
sg6
I52255
sg7
I00
sg8
I-775241
sg9
S'timothy.detmering@enron.com'
p106
sg11
I415657
sg12
I0
sg13
I-315068
sg14
g4
sg15
g4
sg16
g4
sg17
I1105
sg18
g4
sg19
I425000
sg20
I2027865
sg21
g4
sg22
g4
sg23
I315068
sg24
I210500
sg25
I1204583
sg26
I0
sg27
I2027865
ssS'WAKEHAM JOHN'
p107
(dp108
g3
g4
sg5
g4
sg6
I103773
sg7
I00
sg8
g4
sg9
g4
sg11
g4
sg12
I0
sg13
g4
sg14
g4
sg15
g4
sg16
g4
sg17
g4
sg18
I109298
sg19
g4
sg20
g4
sg21
g4
sg22
g4
sg23
g4
sg24
g4
sg25
I213071
sg26
I0
sg27
g4
ssS'POWERS WILLIAM'
p109
(dp110
g3
I653
sg5
g4
sg6
g4
sg7
I00
sg8
I-17500
sg9
S'ken.powers@enron.com'
p111
sg11
g4
sg12
F0.0
sg13
g4
sg14
I12
sg15
g4
sg16
I26
sg17
g4
sg18
I17500
sg19
g4
sg20
g4
sg21
I0
sg22
I0
sg23
g4
sg24
g4
sg25
g4
sg26
F0.0
sg27
g4
ssS'GOLD JOSEPH'
p112
(dp113
g3
g4
sg5
g4
sg6
g4
sg7
I00
sg8
g4
sg9
S'joe.gold@enron.com'
p114
sg11
I304805
sg12
I0
sg13
g4
sg14
g4
sg15
g4
sg16
g4
sg17
I819288
sg18
g4
sg19
I750000
sg20
I877611
sg21
g4
sg22
g4
sg23
I441096
sg24
I272880
sg25
I2146973
sg26
I0
sg27
I436515
ssS'DUNCAN JOHN H'
p115
(dp116
g3
g4
sg5
g4
sg6
g4
sg7
I00
sg8
I-25000
sg9
g4
sg11
g4
sg12
I0
sg13
g4
sg14
g4
sg15
g4
sg16
g4
sg17
g4
sg18
I102492
sg19
g4
sg20
I371750
sg21
g4
sg22
g4
sg23
g4
sg24
g4
sg25
I77492
sg26
I0
sg27
I371750
ssS'SHAPIRO RICHARD S'
p117
(dp118
g3
I15149
sg5
g4
sg6
I137767
sg7
I00
sg8
g4
sg9
S'richard.shapiro@enron.com'
p119
sg11
g4
sg12
F0.0048848108786058485
sg13
g4
sg14
I4527
sg15
g4
sg16
I1215
sg17
I705
sg18
g4
sg19
I650000
sg20
I987001
sg21
I74
sg22
I65
sg23
I379164
sg24
I269076
sg25
I1057548
sg26
F0.053497942386831275
sg27
I607837
ssS'SHELBY REX'
p120
(dp121
g3
I225
sg5
g4
sg6
I22884
sg7
I01
sg8
I-4167
sg9
S'rex.shelby@enron.com'
p122
sg11
g4
sg12
F0.057777777777777775
sg13
g4
sg14
I91
sg15
g4
sg16
I39
sg17
I1573324
sg18
g4
sg19
I200000
sg20
I2493616
sg21
I13
sg22
I14
sg23
I869220
sg24
I211844
sg25
I2003885
sg26
F0.358974358974359
sg27
I1624396
ssS'LEMAISTRE CHARLES'
p123
(dp124
g3
g4
sg5
g4
sg6
g4
sg7
I00
sg8
I-25000
sg9
g4
sg11
g4
sg12
I0
sg13
g4
sg14
g4
sg15
g4
sg16
g4
sg17
g4
sg18
I112492
sg19
g4
sg20
I412878
sg21
g4
sg22
g4
sg23
g4
sg24
g4
sg25
I87492
sg26
I0
sg27
I412878
ssS'KISHKILL JOSEPH G'
p125
(dp126
g3
g4
sg5
g4
sg6
I116335
sg7
I00
sg8
I-51042
sg9
S'joe.kishkill@enron.com'
p127
sg11
g4
sg12
I0
sg13
g4
sg14
g4
sg15
g4
sg16
g4
sg17
I465357
sg18
g4
sg19
g4
sg20
I1034346
sg21
g4
sg22
g4
sg23
I1034346
sg24
I174246
sg25
I704896
sg26
I0
sg27
g4
ssS'MCCONNELL MICHAEL S'
p128
(dp129
g3
I3329
sg5
g4
sg6
I81364
sg7
I00
sg8
g4
sg9
S'mike.mcconnell@enron.com'
p130
sg11
I554422
sg12
F0.02763592670471613
sg13
g4
sg14
I2189
sg15
g4
sg16
I2742
sg17
I540
sg18
g4
sg19
I1100000
sg20
I3101279
sg21
I92
sg22
I194
sg23
I1478269
sg24
I365038
sg25
I2101364
sg26
F0.07075127644055434
sg27
I1623010
ssS'PIRO JIM'
p131
(dp132
g3
I58
sg5
g4
sg6
g4
sg7
I00
sg8
g4
sg9
S'jim.piro@enron.com'
p133
sg11
g4
sg12
F0.0
sg13
g4
sg14
I3
sg15
g4
sg16
I16
sg17
g4
sg18
g4
sg19
g4
sg20
I47304
sg21
I0
sg22
I1
sg23
I47304
sg24
g4
sg25
g4
sg26
F0.0625
sg27
g4
ssS'DELAINEY DAVID W'
p134
(dp135
g3
I3093
sg5
g4
sg6
I86174
sg7
I01
sg8
g4
sg9
S'david.delainey@enron.com'
p136
sg11
I1294981
sg12
F0.02133850630455868
sg13
g4
sg14
I2097
sg15
g4
sg16
I3069
sg17
I1661
sg18
g4
sg19
I3000000
sg20
I3614261
sg21
I66
sg22
I609
sg23
I1323148
sg24
I365163
sg25
I4747979
sg26
F0.198435972629521
sg27
I2291113
ssS'SULLIVAN-SHAKLOVITZ COLLEEN'
p137
(dp138
g3
g4
sg5
I181993
sg6
g4
sg7
I00
sg8
g4
sg9
g4
sg11
I554422
sg12
I0
sg13
g4
sg14
g4
sg15
g4
sg16
g4
sg17
I162
sg18
g4
sg19
I100000
sg20
I1362375
sg21
g4
sg22
g4
sg23
g4
sg24
I162779
sg25
I999356
sg26
I0
sg27
I1362375
ssS'WROBEL BRUCE'
p139
(dp140
g3
g4
sg5
g4
sg6
g4
sg7
I00
sg8
g4
sg9
g4
sg11
g4
sg12
I0
sg13
g4
sg14
g4
sg15
g4
sg16
g4
sg17
g4
sg18
g4
sg19
g4
sg20
I139130
sg21
g4
sg22
g4
sg23
g4
sg24
g4
sg25
g4
sg26
I0
sg27
I139130
ssS'LINDHOLM TOD A'
p141
(dp142
g3
g4
sg5
I204075
sg6
I57727
sg7
I00
sg8
g4
sg9
S'tod.lindholm@enron.com'
p143
sg11
I175000
sg12
I0
sg13
g4
sg14
g4
sg15
g4
sg16
g4
sg17
I2630
sg18
g4
sg19
I200000
sg20
I3064208
sg21
g4
sg22
g4
sg23
I514847
sg24
I236457
sg25
I875889
sg26
I0
sg27
I2549361
ssS'MEYER JEROME J'
p144
(dp145
g3
g4
sg5
g4
sg6
I2151
sg7
I00
sg8
I-38346
sg9
g4
sg11
g4
sg12
I0
sg13
g4
sg14
g4
sg15
g4
sg16
g4
sg17
g4
sg18
I38346
sg19
g4
sg20
g4
sg21
g4
sg22
g4
sg23
g4
sg24
g4
sg25
I2151
sg26
I0
sg27
g4
ssS'LAY KENNETH L'
p146
(dp147
g3
I4273
sg5
I202911
sg6
I99832
sg7
I01
sg8
I-300000
sg9
S'kenneth.lay@enron.com'
p148
sg11
I3600000
sg12
F0.028785396676807865
sg13
g4
sg14
I2411
sg15
I81525000
sg16
I36
sg17
I10359729
sg18
g4
sg19
I7000000
sg20
I49110078
sg21
I123
sg22
I16
sg23
I14761694
sg24
I1072321
sg25
I103559793
sg26
F0.4444444444444444
sg27
I34348384
ssS'BUTTS ROBERT H'
p149
(dp150
g3
g4
sg5
g4
sg6
I9410
sg7
I00
sg8
I-75000
sg9
S'bob.butts@enron.com'
p151
sg11
I175000
sg12
I0
sg13
g4
sg14
g4
sg15
g4
sg16
g4
sg17
I150656
sg18
g4
sg19
I750000
sg20
I417619
sg21
g4
sg22
g4
sg23
I417619
sg24
I261516
sg25
I1271582
sg26
I0
sg27
g4
ssS'CUMBERLAND MICHAEL S'
p152
(dp153
g3
g4
sg5
g4
sg6
I22344
sg7
I00
sg8
g4
sg9
g4
sg11
I275000
sg12
I0
sg13
g4
sg14
g4
sg15
g4
sg16
g4
sg17
I713
sg18
g4
sg19
I325000
sg20
I207940
sg21
g4
sg22
g4
sg23
I207940
sg24
I184899
sg25
I807956
sg26
I0
sg27
g4
ssS'GAHN ROBERT S'
p154
(dp155
g3
g4
sg5
I73122
sg6
I50080
sg7
I00
sg8
I-1042
sg9
g4
sg11
g4
sg12
I0
sg13
g4
sg14
g4
sg15
g4
sg16
g4
sg17
I76547
sg18
g4
sg19
I509870
sg20
I318607
sg21
g4
sg22
g4
sg23
I235370
sg24
I192008
sg25
I900585
sg26
I0
sg27
I83237
ssS'MCCLELLAN GEORGE'
p156
(dp157
g3
I1744
sg5
g4
sg6
I228763
sg7
I00
sg8
I-125000
sg9
S'george.mcclellan@enron.com'
p158
sg11
g4
sg12
F0.02981651376146789
sg13
g4
sg14
I1469
sg15
g4
sg16
I49
sg17
I51587
sg18
g4
sg19
I900000
sg20
I947861
sg21
I52
sg22
I0
sg23
I441096
sg24
I263413
sg25
I1318763
sg26
F0.0
sg27
I506765
ssS'HERMANN ROBERT J'
p159
(dp160
g3
g4
sg5
g4
sg6
I48357
sg7
I00
sg8
I-280000
sg9
S'robert.hermann@enron.com'
p161
sg11
I150000
sg12
I0
sg13
g4
sg14
g4
sg15
g4
sg16
g4
sg17
I416441
sg18
g4
sg19
I700000
sg20
I668132
sg21
g4
sg22
g4
sg23
I480632
sg24
I262663
sg25
I1297461
sg26
I0
sg27
I187500
ssS'SCRIMSHAW MATTHEW'
p162
(dp163
g3
g4
sg5
g4
sg6
g4
sg7
I00
sg8
g4
sg9
S'matthew.scrimshaw@enron.com'
p164
sg11
g4
sg12
I0
sg13
g4
sg14
g4
sg15
g4
sg16
g4
sg17
g4
sg18
g4
sg19
g4
sg20
I759557
sg21
g4
sg22
g4
sg23
g4
sg24
g4
sg25
g4
sg26
I0
sg27
I759557
ssS'GATHMANN WILLIAM D'
p165
(dp166
g3
g4
sg5
g4
sg6
g4
sg7
I00
sg8
g4
sg9
g4
sg11
g4
sg12
I0
sg13
I-72419
sg14
g4
sg15
g4
sg16
g4
sg17
g4
sg18
g4
sg19
g4
sg20
I1945360
sg21
g4
sg22
g4
sg23
I264013
sg24
g4
sg25
g4
sg26
I0
sg27
I1753766
ssS'HAEDICKE MARK E'
p167
(dp168
g3
I4009
sg5
I2157527
sg6
I76169
sg7
I00
sg8
I-934484
sg9
S'mark.haedicke@enron.com'
p169
sg11
I983346
sg12
F0.04489897730107259
sg13
I-329825
sg14
I1847
sg15
g4
sg16
I1941
sg17
I52382
sg18
g4
sg19
I1150000
sg20
I803094
sg21
I180
sg22
I61
sg23
I524169
sg24
I374125
sg25
I3859065
sg26
F0.03142709943328181
sg27
I608750
ssS'BOWEN JR RAYMOND M'
p170
(dp171
g3
I1858
sg5
g4
sg6
I65907
sg7
I01
sg8
I-833
sg9
S'raymond.bowen@enron.com'
p172
sg11
I974293
sg12
F0.07534983853606028
sg13
g4
sg14
I1593
sg15
g4
sg16
I27
sg17
I1621
sg18
g4
sg19
I1350000
sg20
I252055
sg21
I140
sg22
I15
sg23
I252055
sg24
I278601
sg25
I2669589
sg26
F0.5555555555555556
sg27
g4
ssS'GILLIS JOHN'
p173
(dp174
g3
g4
sg5
g4
sg6
g4
sg7
I00
sg8
g4
sg9
g4
sg11
g4
sg12
I0
sg13
g4
sg14
g4
sg15
g4
sg16
g4
sg17
g4
sg18
g4
sg19
g4
sg20
I85641
sg21
g4
sg22
g4
sg23
I75838
sg24
g4
sg25
g4
sg26
I0
sg27
I9803
ssS'MORAN MICHAEL P'
p175
(dp176
g3
I672
sg5
g4
sg6
g4
sg7
I00
sg8
g4
sg9
S'michael.moran@enron.com'
p177
sg11
g4
sg12
F0.0
sg13
g4
sg14
I127
sg15
g4
sg16
I19
sg17
g4
sg18
g4
sg19
g4
sg20
I221141
sg21
I0
sg22
I0
sg23
I161602
sg24
g4
sg25
g4
sg26
F0.0
sg27
I59539
ssS'BAZELIDES PHILIP J'
p178
(dp179
g3
g4
sg5
I684694
sg6
g4
sg7
I00
sg8
g4
sg9
g4
sg11
I93750
sg12
I0
sg13
g4
sg14
g4
sg15
g4
sg16
g4
sg17
I874
sg18
g4
sg19
g4
sg20
I1599641
sg21
g4
sg22
g4
sg23
g4
sg24
I80818
sg25
I860136
sg26
I0
sg27
I1599641
ssS'BELDEN TIMOTHY N'
p180
(dp181
g3
I7991
sg5
I2144013
sg6
I17355
sg7
I01
sg8
I-2334434
sg9
S'tim.belden@enron.com'
p182
sg11
g4
sg12
F0.028532098610937303
sg13
g4
sg14
I5521
sg15
g4
sg16
I484
sg17
I210698
sg18
g4
sg19
I5249999
sg20
I1110705
sg21
I228
sg22
I108
sg23
I157569
sg24
I213999
sg25
I5501630
sg26
F0.2231404958677686
sg27
I953136
ssS'THORN TERENCE H'
p183
(dp184
g3
I266
sg5
I16586
sg6
I46145
sg7
I00
sg8
g4
sg9
S'terence.thorn@enron.com'
p185
sg11
I200000
sg12
F0.0
sg13
g4
sg14
I73
sg15
g4
sg16
I41
sg17
I426629
sg18
g4
sg19
g4
sg20
I4817796
sg21
I0
sg22
I0
sg23
I365320
sg24
I222093
sg25
I911453
sg26
F0.0
sg27
I4452476
ssS'FASTOW ANDREW S'
p186
(dp187
g3
g4
sg5
g4
sg6
I55921
sg7
I01
sg8
I-1386055
sg9
S'andrew.fastow@enron.com'
p188
sg11
I1736055
sg12
I0
sg13
g4
sg14
g4
sg15
g4
sg16
g4
sg17
I277464
sg18
g4
sg19
I1300000
sg20
I1794412
sg21
g4
sg22
g4
sg23
I1794412
sg24
I440698
sg25
I2424083
sg26
I0
sg27
g4
ssS'FOY JOE'
p189
(dp190
g3
I57
sg5
I181755
sg6
g4
sg7
I00
sg8
g4
sg9
S'tracy.foy@enron.com'
p191
sg11
g4
sg12
F0.0
sg13
g4
sg14
I2
sg15
g4
sg16
I13
sg17
g4
sg18
g4
sg19
g4
sg20
I343434
sg21
I0
sg22
I0
sg23
g4
sg24
g4
sg25
I181755
sg26
F0.0
sg27
I343434
ssS'CALGER CHRISTOPHER F'
p192
(dp193
g3
I2598
sg5
g4
sg6
I35818
sg7
I01
sg8
I-262500
sg9
S'christopher.calger@enron.com'
p194
sg11
I375304
sg12
F0.07659738260200154
sg13
g4
sg14
I2188
sg15
g4
sg16
I144
sg17
I486
sg18
g4
sg19
I1250000
sg20
I126027
sg21
I199
sg22
I25
sg23
I126027
sg24
I240189
sg25
I1639297
sg26
F0.1736111111111111
sg27
g4
ssS'RICE KENNETH D'
p195
(dp196
g3
I905
sg5
g4
sg6
I46950
sg7
I01
sg8
I-3504386
sg9
S'ken.rice@enron.com'
p197
sg11
I1617011
sg12
F0.04640883977900553
sg13
g4
sg14
I864
sg15
g4
sg16
I18
sg17
I174839
sg18
g4
sg19
I1750000
sg20
I22542539
sg21
I42
sg22
I4
sg23
I2748364
sg24
I420636
sg25
I505050
sg26
F0.2222222222222222
sg27
I19794175
ssS'KAMINSKI WINCENTY J'
p198
(dp199
g3
I4607
sg5
g4
sg6
I83585
sg7
I00
sg8
g4
sg9
S'vince.kaminski@enron.com'
p200
sg11
I323466
sg12
F0.008899500759713479
sg13
g4
sg14
I583
sg15
g4
sg16
I14368
sg17
I4669
sg18
g4
sg19
I400000
sg20
I976037
sg21
I41
sg22
I171
sg23
I126027
sg24
I275101
sg25
I1086821
sg26
F0.011901447661469933
sg27
I850010
ssS'LOCKHART EUGENE E'
p201
(dp202
g3
g4
sg5
g4
sg6
g4
sg7
I00
sg8
g4
sg9
g4
sg11
g4
sg12
I0
sg13
g4
sg14
g4
sg15
g4
sg16
g4
sg17
g4
sg18
g4
sg19
g4
sg20
g4
sg21
g4
sg22
g4
sg23
g4
sg24
g4
sg25
g4
sg26
I0
sg27
g4
ssS'OVERDYKE JR JERE C'
p203
(dp204
g3
g4
sg5
g4
sg6
I18834
sg7
I00
sg8
g4
sg9
S'jere.overdyke@enron.com'
p205
sg11
I135836
sg12
I0
sg13
g4
sg14
g4
sg15
g4
sg16
g4
sg17
I176
sg18
g4
sg19
g4
sg20
I7307594
sg21
g4
sg22
g4
sg23
I2041016
sg24
I94941
sg25
I249787
sg26
I0
sg27
I5266578
ssS'PEREIRA PAULO V. FERRAZ'
p206
(dp207
g3
g4
sg5
g4
sg6
I27942
sg7
I00
sg8
I-101250
sg9
g4
sg11
g4
sg12
I0
sg13
g4
sg14
g4
sg15
g4
sg16
g4
sg17
g4
sg18
I101250
sg19
g4
sg20
g4
sg21
g4
sg22
g4
sg23
g4
sg24
g4
sg25
I27942
sg26
I0
sg27
g4
ssS'STABLER FRANK'
p208
(dp209
g3
g4
sg5
g4
sg6
I16514
sg7
I00
sg8
g4
sg9
S'frank.stabler@enron.com'
p210
sg11
g4
sg12
I0
sg13
g4
sg14
g4
sg15
g4
sg16
g4
sg17
I356071
sg18
g4
sg19
I500000
sg20
I511734
sg21
g4
sg22
g4
sg23
I511734
sg24
I239502
sg25
I1112087
sg26
I0
sg27
g4
ssS'SKILLING JEFFREY K'
p211
(dp212
g3
I3627
sg5
g4
sg6
I29336
sg7
I01
sg8
g4
sg9
S'jeff.skilling@enron.com'
p213
sg11
I1920000
sg12
F0.0242624758753791
sg13
g4
sg14
I2042
sg15
g4
sg16
I108
sg17
I22122
sg18
g4
sg19
I5600000
sg20
I26093672
sg21
I88
sg22
I30
sg23
I6843672
sg24
I1111258
sg25
I8682716
sg26
F0.2777777777777778
sg27
I19250000
ssS'BLAKE JR. NORMAN P'
p214
(dp215
g3
g4
sg5
g4
sg6
I1279
sg7
I00
sg8
I-113784
sg9
g4
sg11
g4
sg12
I0
sg13
g4
sg14
g4
sg15
g4
sg16
g4
sg17
g4
sg18
I113784
sg19
g4
sg20
g4
sg21
g4
sg22
g4
sg23
g4
sg24
g4
sg25
I1279
sg26
I0
sg27
g4
ssS'PRENTICE JAMES'
p216
(dp217
g3
g4
sg5
I564348
sg6
g4
sg7
I00
sg8
g4
sg9
S'james.prentice@enron.com'
p218
sg11
g4
sg12
I0
sg13
g4
sg14
g4
sg15
g4
sg16
g4
sg17
g4
sg18
g4
sg19
g4
sg20
I1095040
sg21
g4
sg22
g4
sg23
I208809
sg24
g4
sg25
I564348
sg26
I0
sg27
I886231
ssS'GRAY RODNEY'
p219
(dp220
g3
g4
sg5
I93585
sg6
g4
sg7
I00
sg8
g4
sg9
g4
sg11
I365625
sg12
I0
sg13
g4
sg14
g4
sg15
g4
sg16
g4
sg17
I680833
sg18
g4
sg19
g4
sg20
g4
sg21
g4
sg22
g4
sg23
g4
sg24
I6615
sg25
I1146658
sg26
I0
sg27
g4
ssS'PICKERING MARK R'
p221
(dp222
g3
I898
sg5
g4
sg6
I31653
sg7
I00
sg8
g4
sg9
S'mark.pickering@enron.com'
p223
sg11
g4
sg12
F0.0077951002227171495
sg13
g4
sg14
I728
sg15
I400000
sg16
I67
sg17
g4
sg18
g4
sg19
I300000
sg20
I28798
sg21
I7
sg22
I0
sg23
g4
sg24
I655037
sg25
I1386690
sg26
F0.0
sg27
I28798
ssS'NOLES JAMES L'
p224
(dp225
g3
g4
sg5
I774401
sg6
g4
sg7
I00
sg8
g4
sg9
g4
sg11
g4
sg12
I0
sg13
I-94556
sg14
g4
sg15
g4
sg16
g4
sg17
g4
sg18
g4
sg19
g4
sg20
I368705
sg21
g4
sg22
g4
sg23
I463261
sg24
g4
sg25
I774401
sg26
I0
sg27
g4
ssS'KEAN STEVEN J'
p226
(dp227
g3
I12754
sg5
g4
sg6
I41953
sg7
I00
sg8
g4
sg9
S'steven.kean@enron.com'
p228
sg11
I300000
sg12
F0.010976948408342482
sg13
g4
sg14
I3639
sg15
g4
sg16
I6759
sg17
I1231
sg18
g4
sg19
I1000000
sg20
I6153642
sg21
I140
sg22
I387
sg23
I4131594
sg24
I404338
sg25
I1747522
sg26
F0.05725699067909454
sg27
I2022048
ssS'FOWLER PEGGY'
p229
(dp230
g3
I517
sg5
g4
sg6
g4
sg7
I00
sg8
g4
sg9
S'kulvinder.fowler@enron.com'
p231
sg11
g4
sg12
F0.0
sg13
g4
sg14
I10
sg15
g4
sg16
I36
sg17
g4
sg18
g4
sg19
g4
sg20
I1884748
sg21
I0
sg22
I0
sg23
I560170
sg24
g4
sg25
g4
sg26
F0.0
sg27
I1324578
ssS'WHITE JR THOMAS E'
p232
(dp233
g3
g4
sg5
g4
sg6
I81353
sg7
I00
sg8
g4
sg9
S'thomas.white@enron.com'
p234
sg11
g4
sg12
I0
sg13
g4
sg14
g4
sg15
g4
sg16
g4
sg17
I1085463
sg18
g4
sg19
I450000
sg20
I15144123
sg21
g4
sg22
g4
sg23
I13847074
sg24
I317543
sg25
I1934359
sg26
I0
sg27
I1297049
ssS'CHRISTODOULOU DIOMEDES'
p235
(dp236
g3
g4
sg5
g4
sg6
g4
sg7
I00
sg8
g4
sg9
S'diomedes.christodoulou@enron.com'
p237
sg11
g4
sg12
I0
sg13
g4
sg14
g4
sg15
g4
sg16
g4
sg17
g4
sg18
g4
sg19
g4
sg20
I6077885
sg21
g4
sg22
g4
sg23
I950730
sg24
g4
sg25
g4
sg26
I0
sg27
I5127155
ssS'ALLEN PHILLIP K'
p238
(dp239
g3
I2902
sg5
I2869717
sg6
I13868
sg7
I00
sg8
I-3081055
sg9
S'phillip.allen@enron.com'
p240
sg11
I304805
sg12
F0.016195727084769126
sg13
I-126027
sg14
I1407
sg15
g4
sg16
I2195
sg17
I152
sg18
g4
sg19
I4175000
sg20
I1729541
sg21
I47
sg22
I65
sg23
I126027
sg24
I201955
sg25
I4484442
sg26
F0.029612756264236904
sg27
I1729541
ssS'SHARP VICTORIA T'
p241
(dp242
g3
I3136
sg5
I187469
sg6
I116337
sg7
I00
sg8
g4
sg9
S'vicki.sharp@enron.com'
p243
sg11
I422158
sg12
F0.007653061224489796
sg13
g4
sg14
I2477
sg15
g4
sg16
I136
sg17
I2401
sg18
g4
sg19
I600000
sg20
I494136
sg21
I24
sg22
I6
sg23
I213063
sg24
I248146
sg25
I1576511
sg26
F0.04411764705882353
sg27
I281073
ssS'JAEDICKE ROBERT'
p244
(dp245
g3
g4
sg5
g4
sg6
g4
sg7
I00
sg8
I-25000
sg9
g4
sg11
g4
sg12
I0
sg13
I-44093
sg14
g4
sg15
g4
sg16
g4
sg17
g4
sg18
I108750
sg19
g4
sg20
I431750
sg21
g4
sg22
g4
sg23
I44093
sg24
g4
sg25
I83750
sg26
I0
sg27
I431750
ssS'WINOKUR JR. HERBERT S'
p246
(dp247
g3
g4
sg5
g4
sg6
I1413
sg7
I00
sg8
I-25000
sg9
g4
sg11
g4
sg12
I0
sg13
g4
sg14
g4
sg15
g4
sg16
g4
sg17
g4
sg18
I108579
sg19
g4
sg20
g4
sg21
g4
sg22
g4
sg23
g4
sg24
g4
sg25
I84992
sg26
I0
sg27
g4
ssS'BROWN MICHAEL'
p248
(dp249
g3
I1486
sg5
g4
sg6
I49288
sg7
I00
sg8
g4
sg9
S'michael.brown@enron.com'
p250
sg11
g4
sg12
F0.008748317631224764
sg13
g4
sg14
I761
sg15
g4
sg16
I41
sg17
g4
sg18
g4
sg19
g4
sg20
g4
sg21
I13
sg22
I1
sg23
g4
sg24
g4
sg25
I49288
sg26
F0.024390243902439025
sg27
g4
ssS'BADUM JAMES P'
p251
(dp252
g3
g4
sg5
I178980
sg6
I3486
sg7
I00
sg8
g4
sg9
g4
sg11
g4
sg12
I0
sg13
g4
sg14
g4
sg15
g4
sg16
g4
sg17
g4
sg18
g4
sg19
g4
sg20
I257817
sg21
g4
sg22
g4
sg23
g4
sg24
g4
sg25
I182466
sg26
I0
sg27
I257817
ssS'REYNOLDS LAWRENCE'
p253
(dp254
g3
g4
sg5
I51365
sg6
I8409
sg7
I00
sg8
I-200000
sg9
g4
sg11
I156250
sg12
I0
sg13
I-140264
sg14
g4
sg15
g4
sg16
g4
sg17
I202052
sg18
g4
sg19
I100000
sg20
I4221891
sg21
g4
sg22
g4
sg23
I201483
sg24
I76399
sg25
I394475
sg26
I0
sg27
I4160672
ssS'DIMICHELE RICHARD G'
p255
(dp256
g3
g4
sg5
g4
sg6
I35812
sg7
I00
sg8
g4
sg9
S'richard.dimichele@enron.com'
p257
sg11
I694862
sg12
I0
sg13
g4
sg14
g4
sg15
g4
sg16
g4
sg17
I374689
sg18
g4
sg19
I1000000
sg20
I8317782
sg21
g4
sg22
g4
sg23
I126027
sg24
I262788
sg25
I2368151
sg26
I0
sg27
I8191755
ssS'BUCHANAN HAROLD G'
p258
(dp259
g3
I1088
sg5
g4
sg6
I600
sg7
I00
sg8
g4
sg9
S'john.buchanan@enron.com'
p260
sg11
I304805
sg12
F0.0
sg13
g4
sg14
I23
sg15
g4
sg16
I125
sg17
I1215
sg18
g4
sg19
I500000
sg20
I1014505
sg21
I0
sg22
I0
sg23
I189041
sg24
I248017
sg25
I1054637
sg26
F0.0
sg27
I825464
ssS'YEAP SOON'
p261
(dp262
g3
g4
sg5
g4
sg6
I55097
sg7
I00
sg8
g4
sg9
g4
sg11
g4
sg12
I0
sg13
g4
sg14
g4
sg15
g4
sg16
g4
sg17
g4
sg18
g4
sg19
g4
sg20
I192758
sg21
g4
sg22
g4
sg23
g4
sg24
g4
sg25
I55097
sg26
I0
sg27
I192758
ssS'MURRAY JULIA H'
p263
(dp264
g3
I2192
sg5
g4
sg6
I57580
sg7
I00
sg8
g4
sg9
S'julia.murray@enron.com'
p265
sg11
I125000
sg12
F0.005018248175182482
sg13
g4
sg14
I395
sg15
g4
sg16
I45
sg17
I330
sg18
g4
sg19
I400000
sg20
I597461
sg21
I11
sg22
I2
sg23
I196983
sg24
I229284
sg25
I812194
sg26
F0.044444444444444446
sg27
I400478
ssS'YEAGER F SCOTT'
p266
(dp267
g3
g4
sg5
g4
sg6
I53947
sg7
I01
sg8
g4
sg9
S'scott.yeager@enron.com'
p268
sg11
g4
sg12
I0
sg13
g4
sg14
g4
sg15
g4
sg16
g4
sg17
I147950
sg18
g4
sg19
g4
sg20
I11884758
sg21
g4
sg22
g4
sg23
I3576206
sg24
I158403
sg25
I360300
sg26
I0
sg27
I8308552
ssS'HIRKO JOSEPH'
p269
(dp270
g3
g4
sg5
I10259
sg6
I77978
sg7
I01
sg8
g4
sg9
S'joe.hirko@enron.com'
p271
sg11
g4
sg12
I0
sg13
g4
sg14
g4
sg15
g4
sg16
g4
sg17
I2856
sg18
g4
sg19
g4
sg20
I30766064
sg21
g4
sg22
g4
sg23
g4
sg24
g4
sg25
I91093
sg26
I0
sg27
I30766064
ssS'DERRICK JR. JAMES V'
p272
(dp273
g3
I2181
sg5
g4
sg6
I51124
sg7
I00
sg8
I-1284000
sg9
S'james.derrick@enron.com'
p274
sg11
I484000
sg12
F0.029344337459880788
sg13
I-1787380
sg14
I1401
sg15
g4
sg16
I909
sg17
I7482
sg18
g4
sg19
I800000
sg20
I8831913
sg21
I64
sg22
I20
sg23
I1787380
sg24
I492375
sg25
I550981
sg26
F0.022002200220022004
sg27
I8831913
ssS'PAI LOU L'
p275
(dp276
g3
g4
sg5
g4
sg6
I32047
sg7
I00
sg8
g4
sg9
S'lou.pai@enron.com'
p277
sg11
g4
sg12
I0
sg13
g4
sg14
g4
sg15
g4
sg16
g4
sg17
I1829457
sg18
g4
sg19
I1000000
sg20
I23817930
sg21
g4
sg22
g4
sg23
I8453763
sg24
I261879
sg25
I3123383
sg26
I0
sg27
I15364167
ssS'BAY FRANKLIN R'
p278
(dp279
g3
g4
sg5
I260455
sg6
I129142
sg7
I00
sg8
I-201641
sg9
S'frank.bay@enron.com'
p280
sg11
g4
sg12
I0
sg13
I-82782
sg14
g4
sg15
g4
sg16
g4
sg17
I69
sg18
g4
sg19
I400000
sg20
I63014
sg21
g4
sg22
g4
sg23
I145796
sg24
I239671
sg25
I827696
sg26
I0
sg27
g4
ssS'HAYSLETT RODERICK J'
p281
(dp282
g3
I2649
sg5
g4
sg6
g4
sg7
I00
sg8
g4
sg9
S'rod.hayslett@enron.com'
p283
sg11
g4
sg12
F0.01321253303133258
sg13
g4
sg14
I571
sg15
g4
sg16
I1061
sg17
g4
sg18
g4
sg19
g4
sg20
I346663
sg21
I35
sg22
I38
sg23
I346663
sg24
g4
sg25
g4
sg26
F0.03581526861451461
sg27
g4
ssS'FUGH JOHN L'
p284
(dp285
g3
g4
sg5
I50591
sg6
g4
sg7
I00
sg8
g4
sg9
g4
sg11
g4
sg12
I0
sg13
g4
sg14
g4
sg15
g4
sg16
g4
sg17
g4
sg18
g4
sg19
g4
sg20
I176378
sg21
g4
sg22
g4
sg23
g4
sg24
g4
sg25
I50591
sg26
I0
sg27
I176378
ssS'KOENIG MARK E'
p286
(dp287
g3
I2374
sg5
g4
sg6
I127017
sg7
I01
sg8
g4
sg9
S'mark.koenig@enron.com'
p288
sg11
I300000
sg12
F0.02232518955349621
sg13
g4
sg14
I2271
sg15
g4
sg16
I61
sg17
I150458
sg18
g4
sg19
I700000
sg20
I1920055
sg21
I53
sg22
I15
sg23
I1248318
sg24
I309946
sg25
I1587421
sg26
F0.2459016393442623
sg27
I671737
ssS'SAVAGE FRANK'
p289
(dp290
g3
g4
sg5
g4
sg6
g4
sg7
I00
sg8
I-121284
sg9
g4
sg11
g4
sg12
I0
sg13
g4
sg14
g4
sg15
g4
sg16
g4
sg17
g4
sg18
I125034
sg19
g4
sg20
g4
sg21
g4
sg22
g4
sg23
g4
sg24
g4
sg25
I3750
sg26
I0
sg27
g4
ssS'BUY RICHARD B'
p291
(dp292
g3
I3523
sg5
I649584
sg6
g4
sg7
I00
sg8
I-694862
sg9
S'rick.buy@enron.com'
p293
sg11
I769862
sg12
F0.04428044280442804
sg13
g4
sg14
I2333
sg15
g4
sg16
I1053
sg17
I400572
sg18
g4
sg19
I900000
sg20
I3444470
sg21
I156
sg22
I71
sg23
I901657
sg24
I330546
sg25
I2355702
sg26
F0.06742640075973409
sg27
I2542813
ssS'GRAMM WENDY L'
p294
(dp295
g3
g4
sg5
g4
sg6
g4
sg7
I00
sg8
g4
sg9
g4
sg11
g4
sg12
I0
sg13
g4
sg14
g4
sg15
g4
sg16
g4
sg17
g4
sg18
I119292
sg19
g4
sg20
g4
sg21
g4
sg22
g4
sg23
g4
sg24
g4
sg25
I119292
sg26
I0
sg27
g4
ssS'CAUSEY RICHARD A'
p296
(dp297
g3
I1892
sg5
g4
sg6
I30674
sg7
I01
sg8
I-235000
sg9
S'richard.causey@enron.com'
p298
sg11
I350000
sg12
F0.0306553911205074
sg13
g4
sg14
I1585
sg15
g4
sg16
I49
sg17
I307895
sg18
g4
sg19
I1000000
sg20
I2502063
sg21
I58
sg22
I12
sg23
I2502063
sg24
I415189
sg25
I1868758
sg26
F0.24489795918367346
sg27
g4
ssS'TAYLOR MITCHELL S'
p299
(dp300
g3
I533
sg5
I227449
sg6
g4
sg7
I00
sg8
g4
sg9
S'mitchell.taylor@enron.com'
p301
sg11
g4
sg12
F0.0
sg13
g4
sg14
I300
sg15
g4
sg16
I29
sg17
g4
sg18
g4
sg19
I600000
sg20
I3745048
sg21
I0
sg22
I0
sg23
I563798
sg24
I265214
sg25
I1092663
sg26
F0.0
sg27
I3181250
ssS'GLISAN JR BEN F'
p302
(dp303
g3
I873
sg5
g4
sg6
I125978
sg7
I01
sg8
g4
sg9
S'ben.glisan@enron.com'
p304
sg11
I71023
sg12
F0.05956471935853379
sg13
g4
sg14
I874
sg15
g4
sg16
I16
sg17
I200308
sg18
g4
sg19
I600000
sg20
I778546
sg21
I52
sg22
I6
sg23
I393818
sg24
I274975
sg25
I1272284
sg26
F0.375
sg27
I384728
ss.