(dp0
S'BAXTER JOHN C'
p1
(dp2
S'to_messages'
p3
S'NaN'
p4
sS'deferral_payments'
p5
I1295738
sS'expenses'
p6
I11200
sS'poi'
p7
I00
sS'deferred_income'
p8
I-1386055
sS'email_address'
p9
g4
sS'long_term_incentive'
p10
I1586055
sS'fraction_from_poi'
p11
I0
sS'restricted_stock_deferred'
p12
g4
sS'shared_receipt_with_poi'
p13
g4
sS'loan_advances'
p14
g4
sS'from_messages'
p15
g4
sS'other'
p16
I2660303
sS'director_fees'
p17
g4
sS'bonus'
p18
I1200000
sS'total_stock_value'
p19
I10623258
sS'from_poi_to_this_person'
p20
g4
sS'from_this_person_to_poi'
p21
g4
sS'restricted_stock'
p22
I3942714
sS'salary'
p23
I267102
sS'total_payments'
p24
I5634343
sS'fraction_to_poi'
p25
I0
sS'exercised_stock_options'
p26
I6680544
ssS'ELLIOTT STEVEN'
p27
(dp28
g3
g4
sg5
g4
sg6
I78552
sg7
I00
sg8
I-400729
sg9
S'steven.elliott@enron.com'
p29
sg10
g4
sg11
I0
sg12
g4
sg13
g4
sg14
g4
sg15
g4
sg16
I12961
sg17
g4
sg18
I350000
sg19
I6678735
sg20
g4
sg21
g4
sg22
I1788391
sg23
I170941
sg24
I211725
sg25
I0
sg26
I4890344
ssS'CORDES WILLIAM R'
p30
(dp31
g3
I764
sg5
g4
sg6
g4
sg7
I00
sg8
g4
sg9
S'bill.cordes@enron.com'
p32
sg10
g4
sg11
F0.013089005235602094
sg12
g4
sg13
I58
sg14
g4
sg15
I12
sg16
g4
sg17
g4
sg18
g4
sg19
I1038185
sg20
I10
sg21
I0
sg22
I386335
sg23
g4
sg24
g4
sg25
F0.0
sg26
I651850
ssS'HANNON KEVIN P'
p33
(dp34
g3
I1045
sg5
g4
sg6
I34039
sg7
I01
sg8
I-3117011
sg9
S'kevin.hannon@enron.com'
p35
sg10
I1617011
sg11
F0.03062200956937799
sg12
g4
sg13
I1035
sg14
g4
sg15
I32
sg16
I11350
sg17
g4
sg18
I1500000
sg19
I6391065
sg20
I32
sg21
I21
sg22
I853064
sg23
I243293
sg24
I288682
sg25
F0.65625
sg26
I5538001
ssS'MORDAUNT KRISTINA M'
p36
(dp37
g3
g4
sg5
g4
sg6
I35018
sg7
I00
sg8
g4
sg9
S'kristina.mordaunt@enron.com'
p38
sg10
g4
sg11
I0
sg12
g4
sg13
g4
sg14
g4
sg15
g4
sg16
I1411
sg17
g4
sg18
I325000
sg19
I208510
sg20
g4
sg21
g4
sg22
I208510
sg23
I267093
sg24
I628522
sg25
I0
sg26
g4
ssS'MEYER ROCKFORD G'
p39
(dp40
g3
I232
sg5
I1848227
sg6
g4
sg7
I00
sg8
g4
sg9
S'rockford.meyer@enron.com'
p41
sg10
g4
sg11
F0.0
sg12
g4
sg13
I22
sg14
g4
sg15
I28
sg16
g4
sg17
g4
sg18
g4
sg19
I955873
sg20
I0
sg21
I0
sg22
I462384
sg23
g4
sg24
I1848227
sg25
F0.0
sg26
I493489
ssS'HORTON STANLEY C'
p42
(dp43
g3
I2350
sg5
I3131860
sg6
g4
sg7
I00
sg8
g4
sg9
S'stanley.horton@enron.com'
p44
sg10
g4
sg11
F0.01872340425531915
sg12
g4
sg13
I1074
sg14
g4
sg15
I1073
sg16
g4
sg17
g4
sg18
g4
sg19
I7256648
sg20
I44
sg21
I15
sg22
I2046079
sg23
g4
sg24
I3131860
sg25
F0.013979496738117428
sg26
I5210569
ssS'BLACHMAN JEREMY M'
p45
(dp46
g3
I2475
sg5
g4
sg6
I84208
sg7
I00
sg8
g4
sg9
S'jeremy.blachman@enron.com'
p47
sg10
I831809
sg11
F0.010101010101010102
sg12
g4
sg13
I2326
sg14
g4
sg15
I14
sg16
I272
sg17
g4
sg18
I850000
sg19
I954354
sg20
I25
sg21
I2
sg22
I189041
sg23
I248546
sg24
I2014835
sg25
F0.14285714285714285
sg26
I765313
ssS'GIBBS DANA R'
p48
(dp49
g3
I169
sg5
I504610
sg6
g4
sg7
I00
sg8
g4
sg9
S'dana.gibbs@enron.com'
p50
sg10
I461912
sg11
F0.0
sg12
g4
sg13
I23
sg14
g4
sg15
I12
sg16
g4
sg17
g4
sg18
g4
sg19
I2218275
sg20
I0
sg21
I0
sg22
g4
sg23
g4
sg24
I966522
sg25
F0.0
sg26
I2218275
ssS'LOWRY CHARLES P'
p51
(dp52
g3
g4
sg5
g4
sg6
g4
sg7
I00
sg8
g4
sg9
g4
sg10
g4
sg11
I0
sg12
I-153686
sg13
g4
sg14
g4
sg15
g4
sg16
g4
sg17
g4
sg18
g4
sg19
I372205
sg20
g4
sg21
g4
sg22
I153686
sg23
g4
sg24
g4
sg25
I0
sg26
I372205
ssS'COLWELL WESLEY'
p53
(dp54
g3
I1758
sg5
I27610
sg6
I16514
sg7
I01
sg8
I-144062
sg9
S'wes.colwell@enron.com'
p55
sg10
g4
sg11
F0.13651877133105803
sg12
g4
sg13
I1132
sg14
g4
sg15
I40
sg16
I101740
sg17
g4
sg18
I1200000
sg19
I698242
sg20
I240
sg21
I11
sg22
I698242
sg23
I288542
sg24
I1490344
sg25
F0.275
sg26
g4
ssS'WESTFAHL RICHARD K'
p56
(dp57
g3
g4
sg5
g4
sg6
I51870
sg7
I00
sg8
I-10800
sg9
S'dick.westfahl@enron.com'
p58
sg10
I256191
sg11
I0
sg12
g4
sg13
g4
sg14
g4
sg15
g4
sg16
I401130
sg17
g4
sg18
g4
sg19
I384930
sg20
g4
sg21
g4
sg22
I384930
sg23
I63744
sg24
I762135
sg25
I0
sg26
g4
ssS'WALTERS GARETH W'
p59
(dp60
g3
g4
sg5
I53625
sg6
I33785
sg7
I00
sg8
g4
sg9
g4
sg10
g4
sg11
I0
sg12
g4
sg13
g4
sg14
g4
sg15
g4
sg16
g4
sg17
g4
sg18
g4
sg19
I1030329
sg20
g4
sg21
g4
sg22
g4
sg23
g4
sg24
I87410
sg25
I0
sg26
I1030329
ssS'WALLS JR ROBERT H'
p61
(dp62
g3
I671
sg5
g4
sg6
I50936
sg7
I00
sg8
g4
sg9
S'rob.walls@enron.com'
p63
sg10
I540751
sg11
F0.02533532041728763
sg12
g4
sg13
I215
sg14
g4
sg15
I146
sg16
I2
sg17
g4
sg18
I850000
sg19
I5898997
sg20
I17
sg21
I0
sg22
I1552453
sg23
I357091
sg24
I1798780
sg25
F0.0
sg26
I4346544
ssS'KITCHEN LOUISE'
p64
(dp65
g3
I8305
sg5
g4
sg6
I5774
sg7
I00
sg8
g4
sg9
S'louise.kitchen@enron.com'
p66
sg10
g4
sg11
F0.030222757375075255
sg12
g4
sg13
I3669
sg14
g4
sg15
I1728
sg16
I93925
sg17
g4
sg18
I3100000
sg19
I547143
sg20
I251
sg21
I194
sg22
I466101
sg23
I271442
sg24
I3471141
sg25
F0.11226851851851852
sg26
I81042
ssS'CHAN RONNIE'
p67
(dp68
g3
g4
sg5
g4
sg6
g4
sg7
I00
sg8
I-98784
sg9
g4
sg10
g4
sg11
I0
sg12
I-32460
sg13
g4
sg14
g4
sg15
g4
sg16
g4
sg17
I98784
sg18
g4
sg19
g4
sg20
g4
sg21
g4
sg22
I32460
sg23
g4
sg24
g4
sg25
I0
sg26
g4
ssS'BELFER ROBERT'
p69
(dp70
g3
g4
sg5
I-102500
sg6
g4
sg7
I00
sg8
g4
sg9
g4
sg10
g4
sg11
I0
sg12
I44093
sg13
g4
sg14
g4
sg15
g4
sg16
g4
sg17
I3285
sg18
g4
sg19
I-44093
sg20
g4
sg21
g4
sg22
g4
sg23
g4
sg24
I102500
sg25
I0
sg26
I3285
ssS'SHANKMAN JEFFREY A'
p71
(dp72
g3
I3221
sg5
g4
sg6
I178979
sg7
I00
sg8
g4
sg9
S'jeffrey.shankman@enron.com'
p73
sg10
I554422
sg11
F0.029183483390251473
sg12
g4
sg13
I1730
sg14
g4
sg15
I2681
sg16
I1191
sg17
g4
sg18
I2000000
sg19
I2072035
sg20
I94
sg21
I83
sg22
I630137
sg23
I304110
sg24
I3038702
sg25
F0.030958597538232
sg26
I1441898
ssS'WODRASKA JOHN'
p74
(dp75
g3
g4
sg5
g4
sg6
g4
sg7
I00
sg8
g4
sg9
S'john.wodraska@enron.com'
p76
sg10
g4
sg11
I0
sg12
g4
sg13
g4
sg14
g4
sg15
g4
sg16
I189583
sg17
g4
sg18
g4
sg19
g4
sg20
g4
sg21
g4
sg22
g4
sg23
g4
sg24
I189583
sg25
I0
sg26
g4
ssS'BERGSIEKER RICHARD P'
p77
(dp78
g3
I383
sg5
g4
sg6
I59175
sg7
I00
sg8
I-485813
sg9
S'rick.bergsieker@enron.com'
p79
sg10
I180250
sg11
F0.010443864229765013
sg12
g4
sg13
I233
sg14
g4
sg15
I59
sg16
I427316
sg17
g4
sg18
I250000
sg19
I659249
sg20
I4
sg21
I0
sg22
I659249
sg23
I187922
sg24
I618850
sg25
F0.0
sg26
g4
ssS'URQUHART JOHN A'
p80
(dp81
g3
g4
sg5
g4
sg6
I228656
sg7
I00
sg8
I-36666
sg9
g4
sg10
g4
sg11
I0
sg12
g4
sg13
g4
sg14
g4
sg15
g4
sg16
g4
sg17
I36666
sg18
g4
sg19
g4
sg20
g4
sg21
g4
sg22
g4
sg23
g4
sg24
I228656
sg25
I0
sg26
g4
ssS'BIBI PHILIPPE A'
p82
(dp83
g3
I1607
sg5
g4
sg6
I38559
sg7
I00
sg8
g4
sg9
S'philippe.bibi@enron.com'
p84
sg10
I369721
sg11
F0.01431238332296204
sg12
g4
sg13
I1336
sg14
g4
sg15
I40
sg16
I425688
sg17
g4
sg18
I1000000
sg19
I1843816
sg20
I23
sg21
I8
sg22
I378082
sg23
I213625
sg24
I2047593
sg25
F0.2
sg26
I1465734
ssS'RIEKER PAULA H'
p85
(dp86
g3
I1328
sg5
I214678
sg6
I33271
sg7
I01
sg8
I-100000
sg9
S'paula.rieker@enron.com'
p87
sg10
g4
sg11
F0.02635542168674699
sg12
g4
sg13
I1258
sg14
g4
sg15
I82
sg16
I1950
sg17
g4
sg18
I700000
sg19
I1918887
sg20
I35
sg21
I48
sg22
I283649
sg23
I249201
sg24
I1099100
sg25
F0.5853658536585366
sg26
I1635238
ssS'WHALEY DAVID A'
p88
(dp89
g3
g4
sg5
g4
sg6
g4
sg7
I00
sg8
g4
sg9
g4
sg10
g4
sg11
I0
sg12
g4
sg13
g4
sg14
g4
sg15
g4
sg16
g4
sg17
g4
sg18
g4
sg19
I98718
sg20
g4
sg21
g4
sg22
g4
sg23
g4
sg24
g4
sg25
I0
sg26
I98718
ssS'BECK SALLY W'
p90
(dp91
g3
I7315
sg5
g4
sg6
I37172
sg7
I00
sg8
g4
sg9
S'sally.beck@enron.com'
p92
sg10
g4
sg11
F0.01968557758031442
sg12
g4
sg13
I2639
sg14
g4
sg15
I4343
sg16
I566
sg17
g4
sg18
I700000
sg19
I126027
sg20
I144
sg21
I386
sg22
I126027
sg23
I231330
sg24
I969068
sg25
F0.08887865530739121
sg26
g4
ssS'ECHOLS JOHN B'
p93
(dp94
g3
g4
sg5
g4
sg6
I21530
sg7
I00
sg8
g4
sg9
S'john.echols@enron.com'
p95
sg10
I2234774
sg11
I0
sg12
g4
sg13
g4
sg14
g4
sg15
g4
sg16
I53775
sg17
g4
sg18
I200000
sg19
I1008941
sg20
g4
sg21
g4
sg22
I407503
sg23
I182245
sg24
I2692324
sg25
I0
sg26
I601438
ssS'MENDELSOHN JOHN'
p96
(dp97
g3
g4
sg5
g4
sg6
I148
sg7
I00
sg8
I-103750
sg9
g4
sg10
g4
sg11
I0
sg12
g4
sg13
g4
sg14
g4
sg15
g4
sg16
g4
sg17
I103750
sg18
g4
sg19
g4
sg20
g4
sg21
g4
sg22
g4
sg23
g4
sg24
I148
sg25
I0
sg26
g4
ssS'HICKERSON GARY J'
p98
(dp99
g3
I1320
sg5
g4
sg6
I98849
sg7
I00
sg8
g4
sg9
S'gary.hickerson@enron.com'
p100
sg10
I69223
sg11
F0.030303030303030304
sg12
g4
sg13
I900
sg14
g4
sg15
I27
sg16
I1936
sg17
g4
sg18
I1700000
sg19
I441096
sg20
I40
sg21
I1
sg22
I441096
sg23
I211788
sg24
I2081796
sg25
F0.037037037037037035
sg26
g4
ssS'CLINE KENNETH W'
p101
(dp102
g3
g4
sg5
g4
sg6
g4
sg7
I00
sg8
g4
sg9
g4
sg10
g4
sg11
I0
sg12
I-472568
sg13
g4
sg14
g4
sg15
g4
sg16
g4
sg17
g4
sg18
g4
sg19
I189518
sg20
g4
sg21
g4
sg22
I662086
sg23
g4
sg24
g4
sg25
I0
sg26
g4
ssS'LEWIS RICHARD'
p103
(dp104
g3
I952
sg5
g4
sg6
g4
sg7
I00
sg8
g4
sg9
S'richard.lewis@enron.com'
p105
sg10
g4
sg11
F0.01050420168067227
sg12
g4
sg13
I739
sg14
g4
sg15
I26
sg16
g4
sg17
g4
sg18
g4
sg19
I850477
sg20
I10
sg21
I0
sg22
g4
sg23
g4
sg24
g4
sg25
F0.0
sg26
I850477
ssS'HAYES ROBERT E'
p106
(dp107
g3
I504
sg5
I7961
sg6
g4
sg7
I00
sg8
g4
sg9
S'robert.hayes@enron.com'
p108
sg10
g4
sg11
F0.031746031746031744
sg12
g4
sg13
I50
sg14
g4
sg15
I12
sg16
g4
sg17
g4
sg18
g4
sg19
I151418
sg20
I16
sg21
I0
sg22
I151418
sg23
g4
sg24
I7961
sg25
F0.0
sg26
g4
ssS'MCCARTY DANNY J'
p109
(dp110
g3
I1433
sg5
g4
sg6
g4
sg7
I00
sg8
g4
sg9
S'danny.mccarty@enron.com'
p111
sg10
g4
sg11
F0.017445917655268667
sg12
g4
sg13
I508
sg14
g4
sg15
I215
sg16
g4
sg17
g4
sg18
g4
sg19
I758931
sg20
I25
sg21
I2
sg22
I94556
sg23
g4
sg24
g4
sg25
F0.009302325581395349
sg26
I664375
ssS'KOPPER MICHAEL J'
p112
(dp113
g3
g4
sg5
g4
sg6
I118134
sg7
I01
sg8
g4
sg9
S'michael.kopper@enron.com'
p114
sg10
I602671
sg11
I0
sg12
g4
sg13
g4
sg14
g4
sg15
g4
sg16
I907502
sg17
g4
sg18
I800000
sg19
I985032
sg20
g4
sg21
g4
sg22
I985032
sg23
I224305
sg24
I2652612
sg25
I0
sg26
g4
ssS'LEFF DANIEL P'
p115
(dp116
g3
I2822
sg5
g4
sg6
g4
sg7
I00
sg8
g4
sg9
S'dan.leff@enron.com'
p117
sg10
I1387399
sg11
F0.02374202693125443
sg12
g4
sg13
I2672
sg14
g4
sg15
I63
sg16
I3083
sg17
g4
sg18
I1000000
sg19
I360528
sg20
I67
sg21
I14
sg22
I360528
sg23
I273746
sg24
I2664228
sg25
F0.2222222222222222
sg26
g4
ssS'BERBERIAN DAVID'
p118
(dp119
g3
g4
sg5
g4
sg6
I11892
sg7
I00
sg8
g4
sg9
S'david.berberian@enron.com'
p120
sg10
g4
sg11
I0
sg12
g4
sg13
g4
sg14
g4
sg15
g4
sg16
g4
sg17
g4
sg18
g4
sg19
I2493616
sg20
g4
sg21
g4
sg22
I869220
sg23
I216582
sg24
I228474
sg25
I0
sg26
I1624396
ssS'DETMERING TIMOTHY J'
p121
(dp122
g3
g4
sg5
I875307
sg6
I52255
sg7
I00
sg8
I-775241
sg9
S'timothy.detmering@enron.com'
p123
sg10
I415657
sg11
I0
sg12
I-315068
sg13
g4
sg14
g4
sg15
g4
sg16
I1105
sg17
g4
sg18
I425000
sg19
I2027865
sg20
g4
sg21
g4
sg22
I315068
sg23
I210500
sg24
I1204583
sg25
I0
sg26
I2027865
ssS'WAKEHAM JOHN'
p124
(dp125
g3
g4
sg5
g4
sg6
I103773
sg7
I00
sg8
g4
sg9
g4
sg10
g4
sg11
I0
sg12
g4
sg13
g4
sg14
g4
sg15
g4
sg16
g4
sg17
I109298
sg18
g4
sg19
g4
sg20
g4
sg21
g4
sg22
g4
sg23
g4
sg24
I213071
sg25
I0
sg26
g4
ssS'POWERS WILLIAM'
p126
(dp127
g3
I653
sg5
g4
sg6
g4
sg7
I00
sg8
I-17500
sg9
S'ken.powers@enron.com'
p128
sg10
g4
sg11
F0.0
sg12
g4
sg13
I12
sg14
g4
sg15
I26
sg16
g4
sg17
I17500
sg18
g4
sg19
g4
sg20
I0
sg21
I0
sg22
g4
sg23
g4
sg24
g4
sg25
F0.0
sg26
g4
ssS'GOLD JOSEPH'
p129
(dp130
g3
g4
sg5
g4
sg6
g4
sg7
I00
sg8
g4
sg9
S'joe.gold@enron.com'
p131
sg10
I304805
sg11
I0
sg12
g4
sg13
g4
sg14
g4
sg15
g4
sg16
I819288
sg17
g4
sg18
I750000
sg19
I877611
sg20
g4
sg21
g4
sg22
I441096
sg23
I272880
sg24
I2146973
sg25
I0
sg26
I436515
ssS'DUNCAN JOHN H'
p132
(dp133
g3
g4
sg5
g4
sg6
g4
sg7
I00
sg8
I-25000
sg9
g4
sg10
g4
sg11
I0
sg12
g4
sg13
g4
sg14
g4
sg15
g4
sg16
g4
sg17
I102492
sg18
g4
sg19
I371750
sg20
g4
sg21
g4
sg22
g4
sg23
g4
sg24
I77492
sg25
I0
sg26
I371750
ssS'SHAPIRO RICHARD S'
p134
(dp135
g3
I15149
sg5
g4
sg6
I137767
sg7
I00
sg8
g4
sg9
S'richard.shapiro@enron.com'
p136
sg10
g4
sg11
F0.0048848108786058485
sg12
g4
sg13
I4527
sg14
g4
sg15
I1215
sg16
I705
sg17
g4
sg18
I650000
sg19
I987001
sg20
I74
sg21
I65
sg22
I379164
sg23
I269076
sg24
I1057548
sg25
F0.053497942386831275
sg26
I607837
ssS'SHELBY REX'
p137
(dp138
g3
I225
sg5
g4
sg6
I22884
sg7
I01
sg8
I-4167
sg9
S'rex.shelby@enron.com'
p139
sg10
g4
sg11
F0.057777777777777775
sg12
g4
sg13
I91
sg14
g4
sg15
I39
sg16
I1573324
sg17
g4
sg18
I200000
sg19
I2493616
sg20
I13
sg21
I14
sg22
I869220
sg23
I211844
sg24
I2003885
sg25
F0.358974358974359
sg26
I1624396
ssS'LEMAISTRE CHARLES'
p140
(dp141
g3
g4
sg5
g4
sg6
g4
sg7
I00
sg8
I-25000
sg9
g4
sg10
g4
sg11
I0
sg12
g4
sg13
g4
sg14
g4
sg15
g4
sg16
g4
sg17
I112492
sg18
g4
sg19
I412878
sg20
g4
sg21
g4
sg22
g4
sg23
g4
sg24
I87492
sg25
I0
sg26
I412878
ssS'KISHKILL JOSEPH G'
p142
(dp143
g3
g4
sg5
g4
sg6
I116335
sg7
I00
sg8
I-51042
sg9
S'joe.kishkill@enron.com'
p144
sg10
g4
sg11
I0
sg12
g4
sg13
g4
sg14
g4
sg15
g4
sg16
I465357
sg17
g4
sg18
g4
sg19
I1034346
sg20
g4
sg21
g4
sg22
I1034346
sg23
I174246
sg24
I704896
sg25
I0
sg26
g4
ssS'WHALLEY LAWRENCE G'
p145
(dp146
g3
I6019
sg5
g4
sg6
I57838
sg7
I00
sg8
g4
sg9
S'greg.whalley@enron.com'
p147
sg10
I808346
sg11
F0.03090214321315833
sg12
g4
sg13
I3920
sg14
g4
sg15
I556
sg16
I301026
sg17
g4
sg18
I3000000
sg19
I6079137
sg20
I186
sg21
I24
sg22
I2796177
sg23
I510364
sg24
I4677574
sg25
F0.04316546762589928
sg26
I3282960
ssS'MCCONNELL MICHAEL S'
p148
(dp149
g3
I3329
sg5
g4
sg6
I81364
sg7
I00
sg8
g4
sg9
S'mike.mcconnell@enron.com'
p150
sg10
I554422
sg11
F0.02763592670471613
sg12
g4
sg13
I2189
sg14
g4
sg15
I2742
sg16
I540
sg17
g4
sg18
I1100000
sg19
I3101279
sg20
I92
sg21
I194
sg22
I1478269
sg23
I365038
sg24
I2101364
sg25
F0.07075127644055434
sg26
I1623010
ssS'PIRO JIM'
p151
(dp152
g3
I58
sg5
g4
sg6
g4
sg7
I00
sg8
g4
sg9
S'jim.piro@enron.com'
p153
sg10
g4
sg11
F0.0
sg12
g4
sg13
I3
sg14
g4
sg15
I16
sg16
g4
sg17
g4
sg18
g4
sg19
I47304
sg20
I0
sg21
I1
sg22
I47304
sg23
g4
sg24
g4
sg25
F0.0625
sg26
g4
ssS'DELAINEY DAVID W'
p154
(dp155
g3
I3093
sg5
g4
sg6
I86174
sg7
I01
sg8
g4
sg9
S'david.delainey@enron.com'
p156
sg10
I1294981
sg11
F0.02133850630455868
sg12
g4
sg13
I2097
sg14
g4
sg15
I3069
sg16
I1661
sg17
g4
sg18
I3000000
sg19
I3614261
sg20
I66
sg21
I609
sg22
I1323148
sg23
I365163
sg24
I4747979
sg25
F0.198435972629521
sg26
I2291113
ssS'SULLIVAN-SHAKLOVITZ COLLEEN'
p157
(dp158
g3
g4
sg5
I181993
sg6
g4
sg7
I00
sg8
g4
sg9
g4
sg10
I554422
sg11
I0
sg12
g4
sg13
g4
sg14
g4
sg15
g4
sg16
I162
sg17
g4
sg18
I100000
sg19
I1362375
sg20
g4
sg21
g4
sg22
g4
sg23
I162779
sg24
I999356
sg25
I0
sg26
I1362375
ssS'WROBEL BRUCE'
p159
(dp160
g3
g4
sg5
g4
sg6
g4
sg7
I00
sg8
g4
sg9
g4
sg10
g4
sg11
I0
sg12
g4
sg13
g4
sg14
g4
sg15
g4
sg16
g4
sg17
g4
sg18
g4
sg19
I139130
sg20
g4
sg21
g4
sg22
g4
sg23
g4
sg24
g4
sg25
I0
sg26
I139130
ssS'LINDHOLM TOD A'
p161
(dp162
g3
g4
sg5
I204075
sg6
I57727
sg7
I00
sg8
g4
sg9
S'tod.lindholm@enron.com'
p163
sg10
I175000
sg11
I0
sg12
g4
sg13
g4
sg14
g4
sg15
g4
sg16
I2630
sg17
g4
sg18
I200000
sg19
I3064208
sg20
g4
sg21
g4
sg22
I514847
sg23
I236457
sg24
I875889
sg25
I0
sg26
I2549361
ssS'MEYER JEROME J'
p164
(dp165
g3
g4
sg5
g4
sg6
I2151
sg7
I00
sg8
I-38346
sg9
g4
sg10
g4
sg11
I0
sg12
g4
sg13
g4
sg14
g4
sg15
g4
sg16
g4
sg17
I38346
sg18
g4
sg19
g4
sg20
g4
sg21
g4
sg22
g4
sg23
g4
sg24
I2151
sg25
I0
sg26
g4
ssS'LAY KENNETH L'
p166
(dp167
g3
I4273
sg5
I202911
sg6
I99832
sg7
I01
sg8
I-300000
sg9
S'kenneth.lay@enron.com'
p168
sg10
I3600000
sg11
F0.028785396676807865
sg12
g4
sg13
I2411
sg14
I81525000
sg15
I36
sg16
I10359729
sg17
g4
sg18
I7000000
sg19
I49110078
sg20
I123
sg21
I16
sg22
I14761694
sg23
I1072321
sg24
I103559793
sg25
F0.4444444444444444
sg26
I34348384
ssS'BUTTS ROBERT H'
p169
(dp170
g3
g4
sg5
g4
sg6
I9410
sg7
I00
sg8
I-75000
sg9
S'bob.butts@enron.com'
p171
sg10
I175000
sg11
I0
sg12
g4
sg13
g4
sg14
g4
sg15
g4
sg16
I150656
sg17
g4
sg18
I750000
sg19
I417619
sg20
g4
sg21
g4
sg22
I417619
sg23
I261516
sg24
I1271582
sg25
I0
sg26
g4
ssS'CUMBERLAND MICHAEL S'
p172
(dp173
g3
g4
sg5
g4
sg6
I22344
sg7
I00
sg8
g4
sg9
g4
sg10
I275000
sg11
I0
sg12
g4
sg13
g4
sg14
g4
sg15
g4
sg16
I713
sg17
g4
sg18
I325000
sg19
I207940
sg20
g4
sg21
g4
sg22
I207940
sg23
I184899
sg24
I807956
sg25
I0
sg26
g4
ssS'GAHN ROBERT S'
p174
(dp175
g3
g4
sg5
I73122
sg6
I50080
sg7
I00
sg8
I-1042
sg9
g4
sg10
g4
sg11
I0
sg12
g4
sg13
g4
sg14
g4
sg15
g4
sg16
I76547
sg17
g4
sg18
I509870
sg19
I318607
sg20
g4
sg21
g4
sg22
I235370
sg23
I192008
sg24
I900585
sg25
I0
sg26
I83237
ssS'MCCLELLAN GEORGE'
p176
(dp177
g3
I1744
sg5
g4
sg6
I228763
sg7
I00
sg8
I-125000
sg9
S'george.mcclellan@enron.com'
p178
sg10
g4
sg11
F0.02981651376146789
sg12
g4
sg13
I1469
sg14
g4
sg15
I49
sg16
I51587
sg17
g4
sg18
I900000
sg19
I947861
sg20
I52
sg21
I0
sg22
I441096
sg23
I263413
sg24
I1318763
sg25
F0.0
sg26
I506765
ssS'HERMANN ROBERT J'
p179
(dp180
g3
g4
sg5
g4
sg6
I48357
sg7
I00
sg8
I-280000
sg9
S'robert.hermann@enron.com'
p181
sg10
I150000
sg11
I0
sg12
g4
sg13
g4
sg14
g4
sg15
g4
sg16
I416441
sg17
g4
sg18
I700000
sg19
I668132
sg20
g4
sg21
g4
sg22
I480632
sg23
I262663
sg24
I1297461
sg25
I0
sg26
I187500
ssS'SCRIMSHAW MATTHEW'
p182
(dp183
g3
g4
sg5
g4
sg6
g4
sg7
I00
sg8
g4
sg9
S'matthew.scrimshaw@enron.com'
p184
sg10
g4
sg11
I0
sg12
g4
sg13
g4
sg14
g4
sg15
g4
sg16
g4
sg17
g4
sg18
g4
sg19
I759557
sg20
g4
sg21
g4
sg22
g4
sg23
g4
sg24
g4
sg25
I0
sg26
I759557
ssS'GATHMANN WILLIAM D'
p185
(dp186
g3
g4
sg5
g4
sg6
g4
sg7
I00
sg8
g4
sg9
g4
sg10
g4
sg11
I0
sg12
I-72419
sg13
g4
sg14
g4
sg15
g4
sg16
g4
sg17
g4
sg18
g4
sg19
I1945360
sg20
g4
sg21
g4
sg22
I264013
sg23
g4
sg24
g4
sg25
I0
sg26
I1753766
ssS'BOWEN JR RAYMOND M'
p187
(dp188
g3
I1858
sg5
g4
sg6
I65907
sg7
I01
sg8
I-833
sg9
S'raymond.bowen@enron.com'
p189
sg10
I974293
sg11
F0.07534983853606028
sg12
g4
sg13
I1593
sg14
g4
sg15
I27
sg16
I1621
sg17
g4
sg18
I1350000
sg19
I252055
sg20
I140
sg21
I15
sg22
I252055
sg23
I278601
sg24
I2669589
sg25
F0.5555555555555556
sg26
g4
ssS'GILLIS JOHN'
p190
(dp191
g3
g4
sg5
g4
sg6
g4
sg7
I00
sg8
g4
sg9
g4
sg10
g4
sg11
I0
sg12
g4
sg13
g4
sg14
g4
sg15
g4
sg16
g4
sg17
g4
sg18
g4
sg19
I85641
sg20
g4
sg21
g4
sg22
I75838
sg23
g4
sg24
g4
sg25
I0
sg26
I9803
ssS'MORAN MICHAEL P'
p192
(dp193
g3
I672
sg5
g4
sg6
g4
sg7
I00
sg8
g4
sg9
S'michael.moran@enron.com'
p194
sg10
g4
sg11
F0.0
sg12
g4
sg13
I127
sg14
g4
sg15
I19
sg16
g4
sg17
g4
sg18
g4
sg19
I221141
sg20
I0
sg21
I0
sg22
I161602
sg23
g4
sg24
g4
sg25
F0.0
sg26
I59539
ssS'BAZELIDES PHILIP J'
p195
(dp196
g3
g4
sg5
I684694
sg6
g4
sg7
I00
sg8
g4
sg9
g4
sg10
I93750
sg11
I0
sg12
g4
sg13
g4
sg14
g4
sg15
g4
sg16
I874
sg17
g4
sg18
g4
sg19
I1599641
sg20
g4
sg21
g4
sg22
g4
sg23
I80818
sg24
I860136
sg25
I0
sg26
I1599641
ssS'BELDEN TIMOTHY N'
p197
(dp198
g3
I7991
sg5
I2144013
sg6
I17355
sg7
I01
sg8
I-2334434
sg9
S'tim.belden@enron.com'
p199
sg10
g4
sg11
F0.028532098610937303
sg12
g4
sg13
I5521
sg14
g4
sg15
I484
sg16
I210698
sg17
g4
sg18
I5249999
sg19
I1110705
sg20
I228
sg21
I108
sg22
I157569
sg23
I213999
sg24
I5501630
sg25
F0.2231404958677686
sg26
I953136
ssS'THORN TERENCE H'
p200
(dp201
g3
I266
sg5
I16586
sg6
I46145
sg7
I00
sg8
g4
sg9
S'terence.thorn@enron.com'
p202
sg10
I200000
sg11
F0.0
sg12
g4
sg13
I73
sg14
g4
sg15
I41
sg16
I426629
sg17
g4
sg18
g4
sg19
I4817796
sg20
I0
sg21
I0
sg22
I365320
sg23
I222093
sg24
I911453
sg25
F0.0
sg26
I4452476
ssS'FASTOW ANDREW S'
p203
(dp204
g3
g4
sg5
g4
sg6
I55921
sg7
I01
sg8
I-1386055
sg9
S'andrew.fastow@enron.com'
p205
sg10
I1736055
sg11
I0
sg12
g4
sg13
g4
sg14
g4
sg15
g4
sg16
I277464
sg17
g4
sg18
I1300000
sg19
I1794412
sg20
g4
sg21
g4
sg22
I1794412
sg23
I440698
sg24
I2424083
sg25
I0
sg26
g4
ssS'FOY JOE'
p206
(dp207
g3
I57
sg5
I181755
sg6
g4
sg7
I00
sg8
g4
sg9
S'tracy.foy@enron.com'
p208
sg10
g4
sg11
F0.0
sg12
g4
sg13
I2
sg14
g4
sg15
I13
sg16
g4
sg17
g4
sg18
g4
sg19
I343434
sg20
I0
sg21
I0
sg22
g4
sg23
g4
sg24
I181755
sg25
F0.0
sg26
I343434
ssS'CALGER CHRISTOPHER F'
p209
(dp210
g3
I2598
sg5
g4
sg6
I35818
sg7
I01
sg8
I-262500
sg9
S'christopher.calger@enron.com'
p211
sg10
I375304
sg11
F0.07659738260200154
sg12
g4
sg13
I2188
sg14
g4
sg15
I144
sg16
I486
sg17
g4
sg18
I1250000
sg19
I126027
sg20
I199
sg21
I25
sg22
I126027
sg23
I240189
sg24
I1639297
sg25
F0.1736111111111111
sg26
g4
ssS'RICE KENNETH D'
p212
(dp213
g3
I905
sg5
g4
sg6
I46950
sg7
I01
sg8
I-3504386
sg9
S'ken.rice@enron.com'
p214
sg10
I1617011
sg11
F0.04640883977900553
sg12
g4
sg13
I864
sg14
g4
sg15
I18
sg16
I174839
sg17
g4
sg18
I1750000
sg19
I22542539
sg20
I42
sg21
I4
sg22
I2748364
sg23
I420636
sg24
I505050
sg25
F0.2222222222222222
sg26
I19794175
ssS'KAMINSKI WINCENTY J'
p215
(dp216
g3
I4607
sg5
g4
sg6
I83585
sg7
I00
sg8
g4
sg9
S'vince.kaminski@enron.com'
p217
sg10
I323466
sg11
F0.008899500759713479
sg12
g4
sg13
I583
sg14
g4
sg15
I14368
sg16
I4669
sg17
g4
sg18
I400000
sg19
I976037
sg20
I41
sg21
I171
sg22
I126027
sg23
I275101
sg24
I1086821
sg25
F0.011901447661469933
sg26
I850010
ssS'LOCKHART EUGENE E'
p218
(dp219
g3
g4
sg5
g4
sg6
g4
sg7
I00
sg8
g4
sg9
g4
sg10
g4
sg11
I0
sg12
g4
sg13
g4
sg14
g4
sg15
g4
sg16
g4
sg17
g4
sg18
g4
sg19
g4
sg20
g4
sg21
g4
sg22
g4
sg23
g4
sg24
g4
sg25
I0
sg26
g4
ssS'COX DAVID'
p220
(dp221
g3
I102
sg5
g4
sg6
I27861
sg7
I00
sg8
I-41250
sg9
S'chip.cox@enron.com'
p222
sg10
g4
sg11
F0.0
sg12
g4
sg13
I71
sg14
g4
sg15
I33
sg16
I494
sg17
g4
sg18
I800000
sg19
I495633
sg20
I0
sg21
I4
sg22
I378082
sg23
I314288
sg24
I1101393
sg25
F0.12121212121212122
sg26
I117551
ssS'OVERDYKE JR JERE C'
p223
(dp224
g3
g4
sg5
g4
sg6
I18834
sg7
I00
sg8
g4
sg9
S'jere.overdyke@enron.com'
p225
sg10
I135836
sg11
I0
sg12
g4
sg13
g4
sg14
g4
sg15
g4
sg16
I176
sg17
g4
sg18
g4
sg19
I7307594
sg20
g4
sg21
g4
sg22
I2041016
sg23
I94941
sg24
I249787
sg25
I0
sg26
I5266578
ssS'PEREIRA PAULO V. FERRAZ'
p226
(dp227
g3
g4
sg5
g4
sg6
I27942
sg7
I00
sg8
I-101250
sg9
g4
sg10
g4
sg11
I0
sg12
g4
sg13
g4
sg14
g4
sg15
g4
sg16
g4
sg17
I101250
sg18
g4
sg19
g4
sg20
g4
sg21
g4
sg22
g4
sg23
g4
sg24
I27942
sg25
I0
sg26
g4
ssS'STABLER FRANK'
p228
(dp229
g3
g4
sg5
g4
sg6
I16514
sg7
I00
sg8
g4
sg9
S'frank.stabler@enron.com'
p230
sg10
g4
sg11
I0
sg12
g4
sg13
g4
sg14
g4
sg15
g4
sg16
I356071
sg17
g4
sg18
I500000
sg19
I511734
sg20
g4
sg21
g4
sg22
I511734
sg23
I239502
sg24
I1112087
sg25
I0
sg26
g4
ssS'SKILLING JEFFREY K'
p231
(dp232
g3
I3627
sg5
g4
sg6
I29336
sg7
I01
sg8
g4
sg9
S'jeff.skilling@enron.com'
p233
sg10
I1920000
sg11
F0.0242624758753791
sg12
g4
sg13
I2042
sg14
g4
sg15
I108
sg16
I22122
sg17
g4
sg18
I5600000
sg19
I26093672
sg20
I88
sg21
I30
sg22
I6843672
sg23
I1111258
sg24
I8682716
sg25
F0.2777777777777778
sg26
I19250000
ssS'BLAKE JR. NORMAN P'
p234
(dp235
g3
g4
sg5
g4
sg6
I1279
sg7
I00
sg8
I-113784
sg9
g4
sg10
g4
sg11
I0
sg12
g4
sg13
g4
sg14
g4
sg15
g4
sg16
g4
sg17
I113784
sg18
g4
sg19
g4
sg20
g4
sg21
g4
sg22
g4
sg23
g4
sg24
I1279
sg25
I0
sg26
g4
ssS'PRENTICE JAMES'
p236
(dp237
g3
g4
sg5
I564348
sg6
g4
sg7
I00
sg8
g4
sg9
S'james.prentice@enron.com'
p238
sg10
g4
sg11
I0
sg12
g4
sg13
g4
sg14
g4
sg15
g4
sg16
g4
sg17
g4
sg18
g4
sg19
I1095040
sg20
g4
sg21
g4
sg22
I208809
sg23
g4
sg24
I564348
sg25
I0
sg26
I886231
ssS'GRAY RODNEY'
p239
(dp240
g3
g4
sg5
I93585
sg6
g4
sg7
I00
sg8
g4
sg9
g4
sg10
I365625
sg11
I0
sg12
g4
sg13
g4
sg14
g4
sg15
g4
sg16
I680833
sg17
g4
sg18
g4
sg19
g4
sg20
g4
sg21
g4
sg22
g4
sg23
I6615
sg24
I1146658
sg25
I0
sg26
g4
ssS'PICKERING MARK R'
p241
(dp242
g3
I898
sg5
g4
sg6
I31653
sg7
I00
sg8
g4
sg9
S'mark.pickering@enron.com'
p243
sg10
g4
sg11
F0.0077951002227171495
sg12
g4
sg13
I728
sg14
I400000
sg15
I67
sg16
g4
sg17
g4
sg18
I300000
sg19
I28798
sg20
I7
sg21
I0
sg22
g4
sg23
I655037
sg24
I1386690
sg25
F0.0
sg26
I28798
ssS'THE TRAVEL AGENCY IN THE PARK'
p244
(dp245
g3
g4
sg5
g4
sg6
g4
sg7
I00
sg8
g4
sg9
g4
sg10
g4
sg11
I0
sg12
g4
sg13
g4
sg14
g4
sg15
g4
sg16
I362096
sg17
g4
sg18
g4
sg19
g4
sg20
g4
sg21
g4
sg22
g4
sg23
g4
sg24
I362096
sg25
I0
sg26
g4
ssS'NOLES JAMES L'
p246
(dp247
g3
g4
sg5
I774401
sg6
g4
sg7
I00
sg8
g4
sg9
g4
sg10
g4
sg11
I0
sg12
I-94556
sg13
g4
sg14
g4
sg15
g4
sg16
g4
sg17
g4
sg18
g4
sg19
I368705
sg20
g4
sg21
g4
sg22
I463261
sg23
g4
sg24
I774401
sg25
I0
sg26
g4
ssS'KEAN STEVEN J'
p248
(dp249
g3
I12754
sg5
g4
sg6
I41953
sg7
I00
sg8
g4
sg9
S'steven.kean@enron.com'
p250
sg10
I300000
sg11
F0.010976948408342482
sg12
g4
sg13
I3639
sg14
g4
sg15
I6759
sg16
I1231
sg17
g4
sg18
I1000000
sg19
I6153642
sg20
I140
sg21
I387
sg22
I4131594
sg23
I404338
sg24
I1747522
sg25
F0.05725699067909454
sg26
I2022048
ssS'FOWLER PEGGY'
p251
(dp252
g3
I517
sg5
g4
sg6
g4
sg7
I00
sg8
g4
sg9
S'kulvinder.fowler@enron.com'
p253
sg10
g4
sg11
F0.0
sg12
g4
sg13
I10
sg14
g4
sg15
I36
sg16
g4
sg17
g4
sg18
g4
sg19
I1884748
sg20
I0
sg21
I0
sg22
I560170
sg23
g4
sg24
g4
sg25
F0.0
sg26
I1324578
ssS'WHITE JR THOMAS E'
p254
(dp255
g3
g4
sg5
g4
sg6
I81353
sg7
I00
sg8
g4
sg9
S'thomas.white@enron.com'
p256
sg10
g4
sg11
I0
sg12
g4
sg13
g4
sg14
g4
sg15
g4
sg16
I1085463
sg17
g4
sg18
I450000
sg19
I15144123
sg20
g4
sg21
g4
sg22
I13847074
sg23
I317543
sg24
I1934359
sg25
I0
sg26
I1297049
ssS'CHRISTODOULOU DIOMEDES'
p257
(dp258
g3
g4
sg5
g4
sg6
g4
sg7
I00
sg8
g4
sg9
S'diomedes.christodoulou@enron.com'
p259
sg10
g4
sg11
I0
sg12
g4
sg13
g4
sg14
g4
sg15
g4
sg16
g4
sg17
g4
sg18
g4
sg19
I6077885
sg20
g4
sg21
g4
sg22
I950730
sg23
g4
sg24
g4
sg25
I0
sg26
I5127155
ssS'ALLEN PHILLIP K'
p260
(dp261
g3
I2902
sg5
I2869717
sg6
I13868
sg7
I00
sg8
I-3081055
sg9
S'phillip.allen@enron.com'
p262
sg10
I304805
sg11
F0.016195727084769126
sg12
I-126027
sg13
I1407
sg14
g4
sg15
I2195
sg16
I152
sg17
g4
sg18
I4175000
sg19
I1729541
sg20
I47
sg21
I65
sg22
I126027
sg23
I201955
sg24
I4484442
sg25
F0.029612756264236904
sg26
I1729541
ssS'SHARP VICTORIA T'
p263
(dp264
g3
I3136
sg5
I187469
sg6
I116337
sg7
I00
sg8
g4
sg9
S'vicki.sharp@enron.com'
p265
sg10
I422158
sg11
F0.007653061224489796
sg12
g4
sg13
I2477
sg14
g4
sg15
I136
sg16
I2401
sg17
g4
sg18
I600000
sg19
I494136
sg20
I24
sg21
I6
sg22
I213063
sg23
I248146
sg24
I1576511
sg25
F0.04411764705882353
sg26
I281073
ssS'JAEDICKE ROBERT'
p266
(dp267
g3
g4
sg5
g4
sg6
g4
sg7
I00
sg8
I-25000
sg9
g4
sg10
g4
sg11
I0
sg12
I-44093
sg13
g4
sg14
g4
sg15
g4
sg16
g4
sg17
I108750
sg18
g4
sg19
I431750
sg20
g4
sg21
g4
sg22
I44093
sg23
g4
sg24
I83750
sg25
I0
sg26
I431750
ssS'WINOKUR JR. HERBERT S'
p268
(dp269
g3
g4
sg5
g4
sg6
I1413
sg7
I00
sg8
I-25000
sg9
g4
sg10
g4
sg11
I0
sg12
g4
sg13
g4
sg14
g4
sg15
g4
sg16
g4
sg17
I108579
sg18
g4
sg19
g4
sg20
g4
sg21
g4
sg22
g4
sg23
g4
sg24
I84992
sg25
I0
sg26
g4
ssS'BROWN MICHAEL'
p270
(dp271
g3
I1486
sg5
g4
sg6
I49288
sg7
I00
sg8
g4
sg9
S'michael.brown@enron.com'
p272
sg10
g4
sg11
F0.008748317631224764
sg12
g4
sg13
I761
sg14
g4
sg15
I41
sg16
g4
sg17
g4
sg18
g4
sg19
g4
sg20
I13
sg21
I1
sg22
g4
sg23
g4
sg24
I49288
sg25
F0.024390243902439025
sg26
g4
ssS'BADUM JAMES P'
p273
(dp274
g3
g4
sg5
I178980
sg6
I3486
sg7
I00
sg8
g4
sg9
g4
sg10
g4
sg11
I0
sg12
g4
sg13
g4
sg14
g4
sg15
g4
sg16
g4
sg17
g4
sg18
g4
sg19
I257817
sg20
g4
sg21
g4
sg22
g4
sg23
g4
sg24
I182466
sg25
I0
sg26
I257817
ssS'REYNOLDS LAWRENCE'
p275
(dp276
g3
g4
sg5
I51365
sg6
I8409
sg7
I00
sg8
I-200000
sg9
g4
sg10
I156250
sg11
I0
sg12
I-140264
sg13
g4
sg14
g4
sg15
g4
sg16
I202052
sg17
g4
sg18
I100000
sg19
I4221891
sg20
g4
sg21
g4
sg22
I201483
sg23
I76399
sg24
I394475
sg25
I0
sg26
I4160672
ssS'DIMICHELE RICHARD G'
p277
(dp278
g3
g4
sg5
g4
sg6
I35812
sg7
I00
sg8
g4
sg9
S'richard.dimichele@enron.com'
p279
sg10
I694862
sg11
I0
sg12
g4
sg13
g4
sg14
g4
sg15
g4
sg16
I374689
sg17
g4
sg18
I1000000
sg19
I8317782
sg20
g4
sg21
g4
sg22
I126027
sg23
I262788
sg24
I2368151
sg25
I0
sg26
I8191755
ssS'BHATNAGAR SANJAY'
p280
(dp281
g3
I523
sg5
g4
sg6
g4
sg7
I00
sg8
g4
sg9
S'sanjay.bhatnagar@enron.com'
p282
sg10
g4
sg11
F0.0
sg12
I15456290
sg13
I463
sg14
g4
sg15
I29
sg16
I137864
sg17
I137864
sg18
g4
sS'total_stock_value'
p283
S'NaN'
p284
sg20
I0
sg21
I1
sg22
I-2604490
sg23
g4
sg24
I15456290
sg25
F0.034482758620689655
sg26
I2604490
ssS'BUCHANAN HAROLD G'
p285
(dp286
g3
I1088
sg5
g4
sg6
I600
sg7
I00
sg8
g4
sg9
S'john.buchanan@enron.com'
p287
sg10
I304805
sg11
F0.0
sg12
g4
sg13
I23
sg14
g4
sg15
I125
sg16
I1215
sg17
g4
sg18
I500000
sg19
I1014505
sg20
I0
sg21
I0
sg22
I189041
sg23
I248017
sg24
I1054637
sg25
F0.0
sg26
I825464
ssS'YEAP SOON'
p288
(dp289
g3
g4
sg5
g4
sg6
I55097
sg7
I00
sg8
g4
sg9
g4
sg10
g4
sg11
I0
sg12
g4
sg13
g4
sg14
g4
sg15
g4
sg16
g4
sg17
g4
sg18
g4
sg19
I192758
sg20
g4
sg21
g4
sg22
g4
sg23
g4
sg24
I55097
sg25
I0
sg26
I192758
ssS'MURRAY JULIA H'
p290
(dp291
g3
I2192
sg5
g4
sg6
I57580
sg7
I00
sg8
g4
sg9
S'julia.murray@enron.com'
p292
sg10
I125000
sg11
F0.005018248175182482
sg12
g4
sg13
I395
sg14
g4
sg15
I45
sg16
I330
sg17
g4
sg18
I400000
sg19
I597461
sg20
I11
sg21
I2
sg22
I196983
sg23
I229284
sg24
I812194
sg25
F0.044444444444444446
sg26
I400478
ssS'YEAGER F SCOTT'
p293
(dp294
g3
g4
sg5
g4
sg6
I53947
sg7
I01
sg8
g4
sg9
S'scott.yeager@enron.com'
p295
sg10
g4
sg11
I0
sg12
g4
sg13
g4
sg14
g4
sg15
g4
sg16
I147950
sg17
g4
sg18
g4
sg19
I11884758
sg20
g4
sg21
g4
sg22
I3576206
sg23
I158403
sg24
I360300
sg25
I0
sg26
I8308552
ssS'HIRKO JOSEPH'
p296
(dp297
g3
g4
sg5
I10259
sg6
I77978
sg7
I01
sg8
g4
sg9
S'joe.hirko@enron.com'
p298
sg10
g4
sg11
I0
sg12
g4
sg13
g4
sg14
g4
sg15
g4
sg16
I2856
sg17
g4
sg18
g4
sg19
I30766064
sg20
g4
sg21
g4
sg22
g4
sg23
g4
sg24
I91093
sg25
I0
sg26
I30766064
ssS'DERRICK JR. JAMES V'
p299
(dp300
g3
I2181
sg5
g4
sg6
I51124
sg7
I00
sg8
I-1284000
sg9
S'james.derrick@enron.com'
p301
sg10
I484000
sg11
F0.029344337459880788
sg12
I-1787380
sg13
I1401
sg14
g4
sg15
I909
sg16
I7482
sg17
g4
sg18
I800000
sg19
I8831913
sg20
I64
sg21
I20
sg22
I1787380
sg23
I492375
sg24
I550981
sg25
F0.022002200220022004
sg26
I8831913
ssS'PAI LOU L'
p302
(dp303
g3
g4
sg5
g4
sg6
I32047
sg7
I00
sg8
g4
sg9
S'lou.pai@enron.com'
p304
sg10
g4
sg11
I0
sg12
g4
sg13
g4
sg14
g4
sg15
g4
sg16
I1829457
sg17
g4
sg18
I1000000
sg19
I23817930
sg20
g4
sg21
g4
sg22
I8453763
sg23
I261879
sg24
I3123383
sg25
I0
sg26
I15364167
ssS'BAY FRANKLIN R'
p305
(dp306
g3
g4
sg5
I260455
sg6
I129142
sg7
I00
sg8
I-201641
sg9
S'frank.bay@enron.com'
p307
sg10
g4
sg11
I0
sg12
I-82782
sg13
g4
sg14
g4
sg15
g4
sg16
I69
sg17
g4
sg18
I400000
sg19
I63014
sg20
g4
sg21
g4
sg22
I145796
sg23
I239671
sg24
I827696
sg25
I0
sg26
g4
ssS'HAYSLETT RODERICK J'
p308
(dp309
g3
I2649
sg5
g4
sg6
g4
sg7
I00
sg8
g4
sg9
S'rod.hayslett@enron.com'
p310
sg10
g4
sg11
F0.01321253303133258
sg12
g4
sg13
I571
sg14
g4
sg15
I1061
sg16
g4
sg17
g4
sg18
g4
sg19
I346663
sg20
I35
sg21
I38
sg22
I346663
sg23
g4
sg24
g4
sg25
F0.03581526861451461
sg26
g4
ssS'FUGH JOHN L'
p311
(dp312
g3
g4
sg5
I50591
sg6
g4
sg7
I00
sg8
g4
sg9
g4
sg10
g4
sg11
I0
sg12
g4
sg13
g4
sg14
g4
sg15
g4
sg16
g4
sg17
g4
sg18
g4
sg19
I176378
sg20
g4
sg21
g4
sg22
g4
sg23
g4
sg24
I50591
sg25
I0
sg26
I176378
ssS'KOENIG MARK E'
p313
(dp314
g3
I2374
sg5
g4
sg6
I127017
sg7
I01
sg8
g4
sg9
S'mark.koenig@enron.com'
p315
sg10
I300000
sg11
F0.02232518955349621
sg12
g4
sg13
I2271
sg14
g4
sg15
I61
sg16
I150458
sg17
g4
sg18
I700000
sg19
I1920055
sg20
I53
sg21
I15
sg22
I1248318
sg23
I309946
sg24
I1587421
sg25
F0.2459016393442623
sg26
I671737
ssS'SAVAGE FRANK'
p316
(dp317
g3
g4
sg5
g4
sg6
g4
sg7
I00
sg8
I-121284
sg9
g4
sg10
g4
sg11
I0
sg12
g4
sg13
g4
sg14
g4
sg15
g4
sg16
g4
sg17
I125034
sg18
g4
sg19
g4
sg20
g4
sg21
g4
sg22
g4
sg23
g4
sg24
I3750
sg25
I0
sg26
g4
ssS'MARTIN AMANDA K'
p318
(dp319
g3
I1522
sg5
I85430
sg6
I8211
sg7
I00
sg8
g4
sg9
S'a..martin@enron.com'
p320
sg10
I5145434
sg11
F0.005256241787122208
sg12
g4
sg13
I477
sg14
g4
sg15
I230
sg16
I2818454
sg17
g4
sg18
g4
sg19
I2070306
sg20
I8
sg21
I0
sg22
g4
sg23
I349487
sg24
I8407016
sg25
F0.0
sg26
I2070306
ssS'GRAMM WENDY L'
p321
(dp322
g3
g4
sg5
g4
sg6
g4
sg7
I00
sg8
g4
sg9
g4
sg10
g4
sg11
I0
sg12
g4
sg13
g4
sg14
g4
sg15
g4
sg16
g4
sg17
I119292
sg18
g4
sg19
g4
sg20
g4
sg21
g4
sg22
g4
sg23
g4
sg24
I119292
sg25
I0
sg26
g4
ssS'CAUSEY RICHARD A'
p323
(dp324
g3
I1892
sg5
g4
sg6
I30674
sg7
I01
sg8
I-235000
sg9
S'richard.causey@enron.com'
p325
sg10
I350000
sg11
F0.0306553911205074
sg12
g4
sg13
I1585
sg14
g4
sg15
I49
sg16
I307895
sg17
g4
sg18
I1000000
sg19
I2502063
sg20
I58
sg21
I12
sg22
I2502063
sg23
I415189
sg24
I1868758
sg25
F0.24489795918367346
sg26
g4
ssS'TAYLOR MITCHELL S'
p326
(dp327
g3
I533
sg5
I227449
sg6
g4
sg7
I00
sg8
g4
sg9
S'mitchell.taylor@enron.com'
p328
sg10
g4
sg11
F0.0
sg12
g4
sg13
I300
sg14
g4
sg15
I29
sg16
g4
sg17
g4
sg18
I600000
sg19
I3745048
sg20
I0
sg21
I0
sg22
I563798
sg23
I265214
sg24
I1092663
sg25
F0.0
sg26
I3181250
ssS'GLISAN JR BEN F'
p329
(dp330
g3
I873
sg5
g4
sg6
I125978
sg7
I01
sg8
g4
sg9
S'ben.glisan@enron.com'
p331
sg10
I71023
sg11
F0.05956471935853379
sg12
g4
sg13
I874
sg14
g4
sg15
I16
sg16
I200308
sg17
g4
sg18
I600000
sg19
I778546
sg20
I52
sg21
I6
sg22
I393818
sg23
I274975
sg24
I1272284
sg25
F0.375
sg26
I384728
ss.