(lp0
S'poi'
p1
aS'total_payments'
p2
aS'total_stock_value'
p3
aS'from_poi_to_this_person'
p4
aS'from_this_person_to_poi'
p5
aS'shared_receipt_with_poi'
p6
aS'to_messages'
p7
aS'deferral_payments'
p8
aS'expenses'
p9
aS'deferred_income'
p10
aS'long_term_incentive'
p11
aS'restricted_stock_deferred'
p12
aS'loan_advances'
p13
aS'from_messages'
p14
aS'other'
p15
aS'director_fees'
p16
aS'bonus'
p17
aS'restricted_stock'
p18
aS'salary'
p19
aS'exercised_stock_options'
p20
aS'fraction_to_poi'
p21
aS'fraction_from_poi'
p22
a.